; ModuleID = 'llvm-link'
source_filename = "llvm-link"
target datalayout = "e-m:e-p270:32:32-p271:32:32-p272:64:64-i64:64-f80:128-n8:16:32:64-S128"
target triple = "x86_64-unknown-linux-gnu"

%"struct.scabbard::trace::DeviceAsyncQueue" = type { [64 x %"struct.scabbard::trace::DeviceAsyncQueue::Lane"] }
%"struct.scabbard::trace::DeviceAsyncQueue::Lane" = type { i64, [64 x %"struct.scabbard::trace::TraceData"] }
%"struct.scabbard::trace::TraceData" = type { i64, i16, %"union.scabbard::trace::ThreadId", i8*, %"struct.scabbard::LocationMetadata", i64 }
%"union.scabbard::trace::ThreadId" = type { %"class.std::thread::id", [8 x i8] }
%"class.std::thread::id" = type { i64 }
%"struct.scabbard::LocationMetadata" = type { i64, i32, i32 }
%"class.std::ios_base::Init" = type { i8 }
%"class.scabbard::trace::AsyncQueue" = type { %"struct.scabbard::trace::DeviceAsyncQueue"*, [64 x i64], %"struct.scabbard::trace::DeviceAsyncQueue", %"class.std::queue", %"class.std::mutex", %"class.scabbard::trace::TraceWriter"*, %"class.std::thread"*, i8, %"class.std::thread::id", %"class.scabbard::trace::MetadataStore" }
%"class.std::queue" = type { %"class.std::deque" }
%"class.std::deque" = type { %"class.std::_Deque_base" }
%"class.std::_Deque_base" = type { %"struct.std::_Deque_base<scabbard::trace::TraceData, std::allocator<scabbard::trace::TraceData>>::_Deque_impl" }
%"struct.std::_Deque_base<scabbard::trace::TraceData, std::allocator<scabbard::trace::TraceData>>::_Deque_impl" = type { %"struct.std::_Deque_base<scabbard::trace::TraceData, std::allocator<scabbard::trace::TraceData>>::_Deque_impl_data" }
%"struct.std::_Deque_base<scabbard::trace::TraceData, std::allocator<scabbard::trace::TraceData>>::_Deque_impl_data" = type { %"struct.scabbard::trace::TraceData"**, i64, %"struct.std::_Deque_iterator", %"struct.std::_Deque_iterator" }
%"struct.std::_Deque_iterator" = type { %"struct.scabbard::trace::TraceData"*, %"struct.scabbard::trace::TraceData"*, %"struct.scabbard::trace::TraceData"*, %"struct.scabbard::trace::TraceData"** }
%"class.std::mutex" = type { %"class.std::__mutex_base" }
%"class.std::__mutex_base" = type { %union.pthread_mutex_t }
%union.pthread_mutex_t = type { %struct.__pthread_mutex_s }
%struct.__pthread_mutex_s = type { i32, i32, i32, i32, i32, i16, i16, %struct.__pthread_internal_list }
%struct.__pthread_internal_list = type { %struct.__pthread_internal_list*, %struct.__pthread_internal_list* }
%"class.scabbard::trace::TraceWriter" = type { %"class.std::basic_ofstream", %"class.std::fpos" }
%"class.std::basic_ofstream" = type { %"class.std::basic_ostream.base", %"class.std::basic_filebuf", %"class.std::basic_ios" }
%"class.std::basic_ostream.base" = type { i32 (...)** }
%"class.std::basic_filebuf" = type { %"class.std::basic_streambuf", %union.pthread_mutex_t, %"class.std::__basic_file", i32, %struct.__mbstate_t, %struct.__mbstate_t, %struct.__mbstate_t, i8*, i64, i8, i8, i8, i8, i8*, i8*, i8, %"class.std::codecvt"*, i8*, i64, i8*, i8* }
%"class.std::basic_streambuf" = type { i32 (...)**, i8*, i8*, i8*, i8*, i8*, i8*, %"class.std::locale" }
%"class.std::locale" = type { %"class.std::locale::_Impl"* }
%"class.std::locale::_Impl" = type { i32, %"class.std::locale::facet"**, i64, %"class.std::locale::facet"**, i8** }
%"class.std::locale::facet" = type <{ i32 (...)**, i32, [4 x i8] }>
%"class.std::__basic_file" = type <{ %struct._IO_FILE*, i8, [7 x i8] }>
%struct._IO_FILE = type { i32, i8*, i8*, i8*, i8*, i8*, i8*, i8*, i8*, i8*, i8*, i8*, %struct._IO_marker*, %struct._IO_FILE*, i32, i32, i64, i16, i8, [1 x i8], i8*, i64, %struct._IO_codecvt*, %struct._IO_wide_data*, %struct._IO_FILE*, i8*, i64, i32, [20 x i8] }
%struct._IO_marker = type opaque
%struct._IO_codecvt = type opaque
%struct._IO_wide_data = type opaque
%struct.__mbstate_t = type { i32, %union.anon }
%union.anon = type { i32 }
%"class.std::codecvt" = type { %"class.std::__codecvt_abstract_base.base", %struct.__locale_struct* }
%"class.std::__codecvt_abstract_base.base" = type { %"class.std::locale::facet.base" }
%"class.std::locale::facet.base" = type <{ i32 (...)**, i32 }>
%struct.__locale_struct = type { [13 x %struct.__locale_data*], i16*, i32*, i32*, [13 x i8*] }
%struct.__locale_data = type opaque
%"class.std::basic_ios" = type { %"class.std::ios_base", %"class.std::basic_ostream"*, i8, i8, %"class.std::basic_streambuf"*, %"class.std::ctype"*, %"class.std::num_put"*, %"class.std::num_put"* }
%"class.std::ios_base" = type { i32 (...)**, i64, i64, i32, i32, i32, %"struct.std::ios_base::_Callback_list"*, %"struct.std::ios_base::_Words", [8 x %"struct.std::ios_base::_Words"], i32, %"struct.std::ios_base::_Words"*, %"class.std::locale" }
%"struct.std::ios_base::_Callback_list" = type { %"struct.std::ios_base::_Callback_list"*, void (i32, %"class.std::ios_base"*, i32)*, i32, i32 }
%"struct.std::ios_base::_Words" = type { i8*, i64 }
%"class.std::basic_ostream" = type { i32 (...)**, %"class.std::basic_ios" }
%"class.std::ctype" = type <{ %"class.std::locale::facet.base", [4 x i8], %struct.__locale_struct*, i8, [7 x i8], i32*, i32*, i16*, i8, [256 x i8], [256 x i8], i8, [6 x i8] }>
%"class.std::num_put" = type { %"class.std::locale::facet.base", [4 x i8] }
%"class.std::fpos" = type { i64, %struct.__mbstate_t }
%"class.std::thread" = type { %"class.std::thread::id" }
%"class.scabbard::trace::MetadataStore" = type { %"class.std::vector", %"class.std::unordered_map" }
%"class.std::vector" = type { %"struct.std::_Vector_base" }
%"struct.std::_Vector_base" = type { %"struct.std::_Vector_base<std::__cxx11::basic_string<char>, std::allocator<std::__cxx11::basic_string<char>>>::_Vector_impl" }
%"struct.std::_Vector_base<std::__cxx11::basic_string<char>, std::allocator<std::__cxx11::basic_string<char>>>::_Vector_impl" = type { %"struct.std::_Vector_base<std::__cxx11::basic_string<char>, std::allocator<std::__cxx11::basic_string<char>>>::_Vector_impl_data" }
%"struct.std::_Vector_base<std::__cxx11::basic_string<char>, std::allocator<std::__cxx11::basic_string<char>>>::_Vector_impl_data" = type { %"class.std::__cxx11::basic_string"*, %"class.std::__cxx11::basic_string"*, %"class.std::__cxx11::basic_string"* }
%"class.std::__cxx11::basic_string" = type { %"struct.std::__cxx11::basic_string<char>::_Alloc_hider", i64, %union.anon.6 }
%"struct.std::__cxx11::basic_string<char>::_Alloc_hider" = type { i8* }
%union.anon.6 = type { i64, [8 x i8] }
%"class.std::unordered_map" = type { %"class.std::_Hashtable" }
%"class.std::_Hashtable" = type { %"struct.std::__detail::_Hash_node_base"**, i64, %"struct.std::__detail::_Hash_node_base", i64, %"struct.std::__detail::_Prime_rehash_policy", %"struct.std::__detail::_Hash_node_base"* }
%"struct.std::__detail::_Hash_node_base" = type { %"struct.std::__detail::_Hash_node_base"* }
%"struct.std::__detail::_Prime_rehash_policy" = type { float, i64 }
%struct.hipPointerAttribute_t = type { i32, i32, i8*, i8*, i32, i32 }
%"struct.std::__detail::_Hash_node" = type { %"struct.std::__detail::_Hash_node_base", %"struct.std::__detail::_Hash_node_value" }
%"struct.std::__detail::_Hash_node_value" = type { %"struct.std::__detail::_Hash_node_value_base", %"class.std::thread::id" }
%"struct.std::__detail::_Hash_node_value_base" = type { %"struct.__gnu_cxx::__aligned_buffer" }
%"struct.__gnu_cxx::__aligned_buffer" = type { %"union.std::aligned_storage<40, 8>::type" }
%"union.std::aligned_storage<40, 8>::type" = type { [40 x i8] }
%"class.std::unique_ptr" = type { %"struct.std::__uniq_ptr_data" }
%"struct.std::__uniq_ptr_data" = type { %"class.std::__uniq_ptr_impl" }
%"class.std::__uniq_ptr_impl" = type { %"class.std::tuple" }
%"class.std::tuple" = type { %"struct.std::_Tuple_impl" }
%"struct.std::_Tuple_impl" = type { %"struct.std::_Head_base.20" }
%"struct.std::_Head_base.20" = type { %"class.std::basic_ostream.base"* }
%class.anon = type { %"class.scabbard::trace::AsyncQueue"* }
%"struct.std::thread::_State_impl" = type { %"class.std::basic_ostream.base", %"struct.std::thread::_Invoker" }
%"struct.std::thread::_Invoker" = type { %"class.std::tuple.21" }
%"class.std::tuple.21" = type { %"struct.std::_Tuple_impl.22" }
%"struct.std::_Tuple_impl.22" = type { %"struct.std::_Head_base.23" }
%"struct.std::_Head_base.23" = type { %class.anon }
%struct.timespec = type { i64, i64 }
%"class.__gnu_cxx::__normal_iterator" = type { %"class.std::__cxx11::basic_string"* }
%"struct.std::pair.11" = type { %"class.std::__cxx11::basic_string", i64 }
%"struct.std::__detail::_Node_iterator_base" = type { %"struct.std::__detail::_Hash_node"* }
%"struct.std::__detail::_Node_iterator" = type { %"struct.std::__detail::_Node_iterator_base" }
%"struct.std::_Hashtable<std::__cxx11::basic_string<char>, std::pair<const std::__cxx11::basic_string<char>, unsigned long>, std::allocator<std::pair<const std::__cxx11::basic_string<char>, unsigned long>>, std::__detail::_Select1st, std::equal_to<std::__cxx11::basic_string<char>>, std::hash<std::string>, std::__detail::_Mod_range_hashing, std::__detail::_Default_ranged_hash, std::__detail::_Prime_rehash_policy, std::__detail::_Hashtable_traits<true, false, true>>::_Scoped_node" = type { %"class.std::ios_base::Init"*, %"struct.std::__detail::_Hash_node"* }

$_ZStplIcSt11char_traitsIcESaIcEENSt7__cxx1112basic_stringIT_T0_T1_EEPKS5_RKS8_ = comdat any

$_ZN8scabbard5trace16DeviceAsyncQueueC2Ev = comdat any

$_ZNSt11_Deque_baseIN8scabbard5trace9TraceDataESaIS2_EE17_M_initialize_mapEm = comdat any

$__clang_call_terminate = comdat any

$_ZNSt5dequeIN8scabbard5trace9TraceDataESaIS2_EE16_M_push_back_auxIJRKS2_EEEvDpOT_ = comdat any

$_ZNSt5dequeIN8scabbard5trace9TraceDataESaIS2_EE17_M_reallocate_mapEmb = comdat any

$_ZNSt10_HashtableINSt7__cxx1112basic_stringIcSt11char_traitsIcESaIcEEESt4pairIKS5_mESaIS8_ENSt8__detail10_Select1stESt8equal_toIS5_ESt4hashIS5_ENSA_18_Mod_range_hashingENSA_20_Default_ranged_hashENSA_20_Prime_rehash_policyENSA_17_Hashtable_traitsILb1ELb0ELb1EEEE4findERS7_ = comdat any

$_ZNSt10_HashtableINSt7__cxx1112basic_stringIcSt11char_traitsIcESaIcEEESt4pairIKS5_mESaIS8_ENSt8__detail10_Select1stESt8equal_toIS5_ESt4hashIS5_ENSA_18_Mod_range_hashingENSA_20_Default_ranged_hashENSA_20_Prime_rehash_policyENSA_17_Hashtable_traitsILb1ELb0ELb1EEEE14_M_move_assignEOSL_St17integral_constantIbLb1EE = comdat any

$_ZNSt10_HashtableINSt7__cxx1112basic_stringIcSt11char_traitsIcESaIcEEESt4pairIKS5_mESaIS8_ENSt8__detail10_Select1stESt8equal_toIS5_ESt4hashIS5_ENSA_18_Mod_range_hashingENSA_20_Default_ranged_hashENSA_20_Prime_rehash_policyENSA_17_Hashtable_traitsILb1ELb0ELb1EEEE10_M_emplaceIJS6_IS5_mEEEES6_INSA_14_Node_iteratorIS8_Lb0ELb1EEEbESt17integral_constantIbLb1EEDpOT_ = comdat any

$_ZNSt6vectorINSt7__cxx1112basic_stringIcSt11char_traitsIcESaIcEEESaIS5_EE17_M_realloc_insertIJRKS5_EEEvN9__gnu_cxx17__normal_iteratorIPS5_S7_EEDpOT_ = comdat any

$_ZNSt10_HashtableINSt7__cxx1112basic_stringIcSt11char_traitsIcESaIcEEESt4pairIKS5_mESaIS8_ENSt8__detail10_Select1stESt8equal_toIS5_ESt4hashIS5_ENSA_18_Mod_range_hashingENSA_20_Default_ranged_hashENSA_20_Prime_rehash_policyENSA_17_Hashtable_traitsILb1ELb0ELb1EEEE21_M_insert_unique_nodeEmmPNSA_10_Hash_nodeIS8_Lb1EEEm = comdat any

$_ZNSt10_HashtableINSt7__cxx1112basic_stringIcSt11char_traitsIcESaIcEEESt4pairIKS5_mESaIS8_ENSt8__detail10_Select1stESt8equal_toIS5_ESt4hashIS5_ENSA_18_Mod_range_hashingENSA_20_Default_ranged_hashENSA_20_Prime_rehash_policyENSA_17_Hashtable_traitsILb1ELb0ELb1EEEE12_Scoped_nodeD2Ev = comdat any

$_ZNSt10_HashtableINSt7__cxx1112basic_stringIcSt11char_traitsIcESaIcEEESt4pairIKS5_mESaIS8_ENSt8__detail10_Select1stESt8equal_toIS5_ESt4hashIS5_ENSA_18_Mod_range_hashingENSA_20_Default_ranged_hashENSA_20_Prime_rehash_policyENSA_17_Hashtable_traitsILb1ELb0ELb1EEEE13_M_rehash_auxEmSt17integral_constantIbLb1EE = comdat any

$__hip_gpubin_handle = comdat any

@llvm.global_ctors = appending global [4 x { i32, void ()*, i8* }] [{ i32, void ()*, i8* } { i32 65535, void ()* @_GLOBAL__sub_I_defs.cpp, i8* null }, { i32, void ()*, i8* } { i32 65535, void ()* @__hip_module_ctor, i8* null }, { i32, void ()*, i8* } { i32 65535, void ()* @_GLOBAL__sub_I_AsyncQueue.cpp, i8* null }, { i32, void ()*, i8* } { i32 65535, void ()* @_GLOBAL__sub_I_TraceWriter.cpp, i8* null }]
@_ZN8scabbard5trace19DEVICE_TRACE_LOGGERE = internal global %"struct.scabbard::trace::DeviceAsyncQueue"* undef, align 8, !dbg !0
@_ZStL8__ioinit = internal global %"class.std::ios_base::Init" zeroinitializer, align 1, !dbg !570
@_ZN8scabbard5trace12TRACE_LOGGERE = dso_local global %"class.scabbard::trace::AsyncQueue" zeroinitializer, align 8, !dbg !576
@.str = private unnamed_addr constant [31 x i8] c"SCABBARD_INSTRUMENTED_EXE_NAME\00", align 1, !dbg !4527
@.str.2 = private unnamed_addr constant [12 x i8] c"unknown_exe\00", align 1, !dbg !4532
@.str.3 = private unnamed_addr constant [20 x i8] c"SCABBARD_TRACE_FILE\00", align 1, !dbg !4537
@.str.4 = private unnamed_addr constant [3 x i8] c"./\00", align 1, !dbg !4542
@.str.5 = private unnamed_addr constant [16 x i8] c".scabbard.trace\00", align 1, !dbg !4547
@.str.6 = private unnamed_addr constant [104 x i8] c"\0A[scabbard::trace::init::ERROR] could not allocate space for the device side async queue! [hipError_t: \00", align 1, !dbg !4550
@.str.7 = private unnamed_addr constant [3 x i8] c"]\0A\00", align 1, !dbg !4555
@.str.8 = private unnamed_addr constant [44 x i8] c"\0A[scabbard::trace::init::INFO] api reports \00", align 1, !dbg !4557
@.str.9 = private unnamed_addr constant [36 x i8] c" compatible devices on this system\0A\00", align 1, !dbg !4562
@.str.10 = private unnamed_addr constant [94 x i8] c"\0A[scabbard::trace::init::ERROR] could not get the number of compatible devices! [hipError_t: \00", align 1, !dbg !4567
@.str.11 = private unnamed_addr constant [115 x i8] c"\0A[scabbard::trace::init::ERROR] failed to copy the initial device side async queue to the device(s)! [hipError_t: \00", align 1, !dbg !4572
@.str.12 = private unnamed_addr constant [109 x i8] c"\0A[scabbard::trace::cond::ERROR] could not get the properties of a pointer with `hipPointerGetAttributes()`!\0A\00", align 1, !dbg !4577
@.str.14 = private unnamed_addr constant [21 x i8] c"basic_string::append\00", align 1, !dbg !4582
@0 = private unnamed_addr constant [41 x i8] c"_ZN8scabbard5trace19DEVICE_TRACE_LOGGERE\00", align 1
@__hip_fatbin = external constant i8, section ".hip_fatbin"
@__hip_fatbin_wrapper = internal constant { i32, i32, i8*, i8* } { i32 1212764230, i32 1, i8* @__hip_fatbin, i8* null }, section ".hipFatBinSegment", align 8
@__hip_gpubin_handle = linkonce hidden local_unnamed_addr global i8** null, comdat, align 8
@_ZStL8__ioinit.2 = internal global %"class.std::ios_base::Init" zeroinitializer, align 1, !dbg !4587
@.str.13 = private unnamed_addr constant [74 x i8] c"\0A[scabbard::trace::dtor::ERROR] could not deallocate device side buffer!\0A\00", align 1, !dbg !4589
@.str.1 = private unnamed_addr constant [89 x i8] c"\0A[scabbard::trace::AsyncQueue::ERROR] could not properly deallocate device side buffer!\0A\00", align 1, !dbg !4595
@.str.2.16 = private unnamed_addr constant [92 x i8] c"\0A[scabbard::trace::ERROR] failed to copy the device side of the AsyncQueue for processing!\0A\00", align 1, !dbg !4600
@_ZTVNSt6thread11_State_implINS_8_InvokerISt5tupleIJZN8scabbard5trace10AsyncQueue5startEvEUlvE_EEEEEE = internal unnamed_addr constant { [5 x i8*] } { [5 x i8*] [i8* null, i8* bitcast ({ i8*, i8*, i8* }* @_ZTINSt6thread11_State_implINS_8_InvokerISt5tupleIJZN8scabbard5trace10AsyncQueue5startEvEUlvE_EEEEEE to i8*), i8* bitcast (void (%"class.std::basic_ostream.base"*)* @_ZNSt6thread6_StateD2Ev to i8*), i8* bitcast (void (%"struct.std::thread::_State_impl"*)* @_ZNSt6thread11_State_implINS_8_InvokerISt5tupleIJZN8scabbard5trace10AsyncQueue5startEvEUlvE_EEEEED0Ev to i8*), i8* bitcast (void (%"struct.std::thread::_State_impl"*)* @_ZNSt6thread11_State_implINS_8_InvokerISt5tupleIJZN8scabbard5trace10AsyncQueue5startEvEUlvE_EEEEE6_M_runEv to i8*)] }, align 8
@_ZTVN10__cxxabiv120__si_class_type_infoE = external dso_local global i8*
@_ZTSNSt6thread11_State_implINS_8_InvokerISt5tupleIJZN8scabbard5trace10AsyncQueue5startEvEUlvE_EEEEEE = internal constant [97 x i8] c"NSt6thread11_State_implINS_8_InvokerISt5tupleIJZN8scabbard5trace10AsyncQueue5startEvEUlvE_EEEEEE\00", align 1
@_ZTINSt6thread6_StateE = external dso_local constant i8*
@_ZTINSt6thread11_State_implINS_8_InvokerISt5tupleIJZN8scabbard5trace10AsyncQueue5startEvEUlvE_EEEEEE = internal constant { i8*, i8*, i8* } { i8* bitcast (i8** getelementptr inbounds (i8*, i8** @_ZTVN10__cxxabiv120__si_class_type_infoE, i64 2) to i8*), i8* getelementptr inbounds ([97 x i8], [97 x i8]* @_ZTSNSt6thread11_State_implINS_8_InvokerISt5tupleIJZN8scabbard5trace10AsyncQueue5startEvEUlvE_EEEEEE, i32 0, i32 0), i8* bitcast (i8** @_ZTINSt6thread6_StateE to i8*) }, align 8
@.str.3.23 = private unnamed_addr constant [48 x i8] c"cannot create std::deque larger than max_size()\00", align 1, !dbg !4605
@_ZStL8__ioinit.35 = internal global %"class.std::ios_base::Init" zeroinitializer, align 1, !dbg !4611
@__dso_handle = external hidden global i8
@_ZN8scabbard5trace11TraceWriter8WORD_LENE = dso_local constant i32 8, align 4, !dbg !4613
@_ZN8scabbard5traceL4_BUFB5cxx11E = internal global %"class.std::__cxx11::basic_string" zeroinitializer, align 8, !dbg !4616
@_ZN8scabbard5trace11TraceWriter3BUFE = dso_local local_unnamed_addr global i8* null, align 8, !dbg !4618
@_ZSt4cerr = external dso_local global %"class.std::basic_ostream", align 8
@.str.38 = private unnamed_addr constant [84 x i8] c"\0A[scabbard::trace::writer::ERROR] could not initiate trace file if it is not open!\0A\00", align 1, !dbg !4620
@.str.49 = private unnamed_addr constant [50 x i8] c"basic_string: construction from null is not valid\00", align 1, !dbg !4625
@.str.1.50 = private unnamed_addr constant [26 x i8] c"vector::_M_realloc_insert\00", align 1, !dbg !4630

@_ZN8scabbard5trace10AsyncQueueC1Ev = dso_local unnamed_addr alias void (%"class.scabbard::trace::AsyncQueue"*), void (%"class.scabbard::trace::AsyncQueue"*)* @_ZN8scabbard5trace10AsyncQueueC2Ev
@_ZN8scabbard5trace10AsyncQueueD1Ev = dso_local unnamed_addr alias void (%"class.scabbard::trace::AsyncQueue"*), void (%"class.scabbard::trace::AsyncQueue"*)* @_ZN8scabbard5trace10AsyncQueueD2Ev
@_ZN8scabbard5trace11TraceWriterC1ERKNSt7__cxx1112basic_stringIcSt11char_traitsIcESaIcEEE = dso_local unnamed_addr alias void (%"class.scabbard::trace::TraceWriter"*, %"class.std::__cxx11::basic_string"*), void (%"class.scabbard::trace::TraceWriter"*, %"class.std::__cxx11::basic_string"*)* @_ZN8scabbard5trace11TraceWriterC2ERKNSt7__cxx1112basic_stringIcSt11char_traitsIcESaIcEEE
@_ZN8scabbard5trace11TraceWriterD1Ev = dso_local unnamed_addr alias void (%"class.scabbard::trace::TraceWriter"*), void (%"class.scabbard::trace::TraceWriter"*)* @_ZN8scabbard5trace11TraceWriterD2Ev

; Function Attrs: uwtable
define internal void @_GLOBAL__sub_I_defs.cpp() #0 section ".text.startup" !dbg !7011 {
  tail call void @_ZNSt8ios_base4InitC1Ev(%"class.std::ios_base::Init"* noundef nonnull align 1 dereferenceable(1) @_ZStL8__ioinit), !dbg !7013
  %1 = tail call i32 @__cxa_atexit(void (i8*)* bitcast (void (%"class.std::ios_base::Init"*)* @_ZNSt8ios_base4InitD1Ev to void (i8*)*), i8* getelementptr inbounds (%"class.std::ios_base::Init", %"class.std::ios_base::Init"* @_ZStL8__ioinit, i64 0, i32 0), i8* nonnull @__dso_handle) #24, !dbg !7017
  tail call void @_ZN8scabbard5trace10AsyncQueueC1Ev(%"class.scabbard::trace::AsyncQueue"* noundef nonnull align 8 dereferenceable(263408) @_ZN8scabbard5trace12TRACE_LOGGERE), !dbg !7018
  %2 = tail call i32 @__cxa_atexit(void (i8*)* bitcast (void (%"class.scabbard::trace::AsyncQueue"*)* @_ZN8scabbard5trace10AsyncQueueD1Ev to void (i8*)*), i8* bitcast (%"class.scabbard::trace::AsyncQueue"* @_ZN8scabbard5trace12TRACE_LOGGERE to i8*), i8* nonnull @__dso_handle) #24, !dbg !7022
  ret void
}

define internal void @__hip_module_ctor() {
  %1 = load i8**, i8*** @__hip_gpubin_handle, align 8
  %2 = icmp eq i8** %1, null
  br i1 %2, label %3, label %5

3:                                                ; preds = %0
  %4 = tail call i8** @__hipRegisterFatBinary(i8* bitcast ({ i32, i32, i8*, i8* }* @__hip_fatbin_wrapper to i8*))
  store i8** %4, i8*** @__hip_gpubin_handle, align 8
  br label %5

5:                                                ; preds = %3, %0
  %6 = phi i8** [ %4, %3 ], [ %1, %0 ]
  tail call void @__hipRegisterVar(i8** %6, i8* bitcast (%"struct.scabbard::trace::DeviceAsyncQueue"** @_ZN8scabbard5trace19DEVICE_TRACE_LOGGERE to i8*), i8* getelementptr inbounds ([41 x i8], [41 x i8]* @0, i64 0, i64 0), i8* getelementptr inbounds ([41 x i8], [41 x i8]* @0, i64 0, i64 0), i32 0, i64 8, i32 0, i32 0)
  %7 = tail call i32 @atexit(void ()* nonnull @__hip_module_dtor)
  ret void
}

declare dso_local i8** @__hipRegisterFatBinary(i8*) local_unnamed_addr

declare dso_local void @__hipRegisterVar(i8**, i8*, i8*, i8*, i32, i64, i32, i32) local_unnamed_addr

define internal void @__hip_module_dtor() {
  %1 = load i8**, i8*** @__hip_gpubin_handle, align 8
  %2 = icmp eq i8** %1, null
  br i1 %2, label %4, label %3

3:                                                ; preds = %0
  tail call void @__hipUnregisterFatBinary(i8** nonnull %1)
  store i8** null, i8*** @__hip_gpubin_handle, align 8
  br label %4

4:                                                ; preds = %3, %0
  ret void
}

declare dso_local i32 @atexit(void ()*) local_unnamed_addr

declare dso_local void @__hipUnregisterFatBinary(i8**) local_unnamed_addr

declare dso_local void @_ZNSt8ios_base4InitC1Ev(%"class.std::ios_base::Init"* noundef nonnull align 1 dereferenceable(1)) unnamed_addr #1

; Function Attrs: nounwind
declare dso_local void @_ZNSt8ios_base4InitD1Ev(%"class.std::ios_base::Init"* noundef nonnull align 1 dereferenceable(1)) unnamed_addr #2

; Function Attrs: nofree nounwind
declare dso_local i32 @__cxa_atexit(void (i8*)*, i8*, i8*) local_unnamed_addr #3

; Function Attrs: uwtable
define dso_local void @scabbard.trace.scabbard_init() local_unnamed_addr #0 personality i8* bitcast (i32 (...)* @__gxx_personality_v0 to i8*) !dbg !7023 {
  %1 = alloca i64, align 8
  %2 = alloca i64, align 8
  %3 = alloca %"class.std::__cxx11::basic_string", align 8
  %4 = alloca %"class.std::__cxx11::basic_string", align 8
  %5 = alloca %"class.std::__cxx11::basic_string", align 8
  %6 = alloca %"struct.scabbard::trace::DeviceAsyncQueue"*, align 8
  %7 = alloca i32, align 4
  %8 = alloca %"struct.scabbard::trace::DeviceAsyncQueue", align 8
  %9 = tail call i8* @getenv(i8* noundef getelementptr inbounds ([31 x i8], [31 x i8]* @.str, i64 0, i64 0)) #24, !dbg !7037
  call void @llvm.dbg.value(metadata i8* %9, metadata !7025, metadata !DIExpression()), !dbg !7038
  %10 = bitcast %"class.std::__cxx11::basic_string"* %3 to i8*, !dbg !7039
  call void @llvm.lifetime.start.p0i8(i64 32, i8* nonnull %10) #24, !dbg !7039
  call void @llvm.dbg.declare(metadata %"class.std::__cxx11::basic_string"* %3, metadata !7027, metadata !DIExpression()), !dbg !7040
  %11 = icmp eq i8* %9, null, !dbg !7041
  call void @llvm.dbg.value(metadata %"class.std::__cxx11::basic_string"* %3, metadata !7042, metadata !DIExpression()), !dbg !7054
  call void @llvm.dbg.value(metadata %"class.std::__cxx11::basic_string"* %3, metadata !7042, metadata !DIExpression()), !dbg !7056
  %12 = getelementptr inbounds %"class.std::__cxx11::basic_string", %"class.std::__cxx11::basic_string"* %3, i64 0, i32 2, !dbg !7038
  call void @llvm.dbg.value(metadata %"class.std::__cxx11::basic_string"* %3, metadata !7058, metadata !DIExpression()), !dbg !7064
  call void @llvm.dbg.value(metadata %"class.std::__cxx11::basic_string"* %3, metadata !7058, metadata !DIExpression()), !dbg !7066
  call void @llvm.dbg.value(metadata %union.anon.6* %12, metadata !7061, metadata !DIExpression()), !dbg !7064
  call void @llvm.dbg.value(metadata %union.anon.6* %12, metadata !7061, metadata !DIExpression()), !dbg !7066
  call void @llvm.dbg.value(metadata %"class.std::ios_base::Init"* undef, metadata !7062, metadata !DIExpression()), !dbg !7064
  call void @llvm.dbg.value(metadata %"class.std::ios_base::Init"* undef, metadata !7062, metadata !DIExpression()), !dbg !7066
  %13 = bitcast %"class.std::__cxx11::basic_string"* %3 to %union.anon.6**, !dbg !7038
  store %union.anon.6* %12, %union.anon.6** %13, align 8, !dbg !7038, !tbaa !7068
  %14 = bitcast %union.anon.6* %12 to i8*, !dbg !7038
  br i1 %11, label %29, label %15, !dbg !7041

15:                                               ; preds = %0
  call void @llvm.dbg.value(metadata i8* %9, metadata !7050, metadata !DIExpression()), !dbg !7056
  call void @llvm.dbg.value(metadata %"class.std::ios_base::Init"* undef, metadata !7051, metadata !DIExpression()), !dbg !7056
  call void @llvm.dbg.value(metadata %"class.std::__cxx11::basic_string"* %3, metadata !7073, metadata !DIExpression()), !dbg !7076
  call void @llvm.dbg.value(metadata i8* %9, metadata !7078, metadata !DIExpression()), !dbg !7081
  %16 = call i64 @strlen(i8* noundef nonnull dereferenceable(1) %9) #24, !dbg !7083
  call void @llvm.dbg.value(metadata !DIArgList(i8* %9, i64 %16), metadata !7052, metadata !DIExpression(DW_OP_LLVM_arg, 0, DW_OP_LLVM_arg, 1, DW_OP_constu, 1, DW_OP_mul, DW_OP_plus, DW_OP_stack_value)), !dbg !7084
  call void @llvm.dbg.value(metadata %"class.std::__cxx11::basic_string"* %3, metadata !4750, metadata !DIExpression()), !dbg !7085
  call void @llvm.dbg.value(metadata i8* %9, metadata !4751, metadata !DIExpression()), !dbg !7085
  call void @llvm.dbg.value(metadata !DIArgList(i8* %9, i64 %16), metadata !4752, metadata !DIExpression(DW_OP_LLVM_arg, 0, DW_OP_LLVM_arg, 1, DW_OP_constu, 1, DW_OP_mul, DW_OP_plus, DW_OP_stack_value)), !dbg !7085
  call void @llvm.dbg.declare(metadata %"class.std::ios_base::Init"* undef, metadata !4753, metadata !DIExpression()), !dbg !7087
  %17 = bitcast i64* %2 to i8*, !dbg !7088
  call void @llvm.lifetime.start.p0i8(i64 8, i8* nonnull %17) #24, !dbg !7088
  call void @llvm.dbg.value(metadata i64 %16, metadata !4754, metadata !DIExpression()), !dbg !7085
  store i64 %16, i64* %2, align 8, !dbg !7089, !tbaa !7090
  %18 = icmp ugt i64 %16, 15, !dbg !7092
  br i1 %18, label %19, label %24, !dbg !7094

19:                                               ; preds = %15
  call void @llvm.dbg.value(metadata i64* %2, metadata !4754, metadata !DIExpression(DW_OP_deref)), !dbg !7085
  %20 = call noundef i8* @_ZNSt7__cxx1112basic_stringIcSt11char_traitsIcESaIcEE9_M_createERmm(%"class.std::__cxx11::basic_string"* noundef nonnull align 8 dereferenceable(32) %3, i64* noundef nonnull align 8 dereferenceable(8) %2, i64 noundef 0), !dbg !7095
  call void @llvm.dbg.value(metadata %"class.std::__cxx11::basic_string"* %3, metadata !7097, metadata !DIExpression()), !dbg !7101
  call void @llvm.dbg.value(metadata i8* %20, metadata !7100, metadata !DIExpression()), !dbg !7101
  %21 = getelementptr inbounds %"class.std::__cxx11::basic_string", %"class.std::__cxx11::basic_string"* %3, i64 0, i32 0, i32 0, !dbg !7103
  store i8* %20, i8** %21, align 8, !dbg !7104, !tbaa !7105
  %22 = load i64, i64* %2, align 8, !dbg !7107, !tbaa !7090
  call void @llvm.dbg.value(metadata i64 %22, metadata !4754, metadata !DIExpression()), !dbg !7085
  call void @llvm.dbg.value(metadata %"class.std::__cxx11::basic_string"* %3, metadata !7108, metadata !DIExpression()), !dbg !7112
  call void @llvm.dbg.value(metadata i64 %22, metadata !7111, metadata !DIExpression()), !dbg !7112
  %23 = getelementptr inbounds %"class.std::__cxx11::basic_string", %"class.std::__cxx11::basic_string"* %3, i64 0, i32 2, i32 0, !dbg !7114
  store i64 %22, i64* %23, align 8, !dbg !7115, !tbaa !7116
  br label %24, !dbg !7117

24:                                               ; preds = %19, %15
  %25 = phi i8* [ %20, %19 ], [ %14, %15 ], !dbg !7118
  call void @llvm.dbg.value(metadata %"class.std::__cxx11::basic_string"* %3, metadata !4755, metadata !DIExpression()), !dbg !7085
  call void @llvm.dbg.value(metadata %"class.std::__cxx11::basic_string"* %3, metadata !7121, metadata !DIExpression()), !dbg !7123
  call void @llvm.dbg.value(metadata i8* %25, metadata !7124, metadata !DIExpression()), !dbg !7129
  call void @llvm.dbg.value(metadata i8* %9, metadata !7127, metadata !DIExpression()), !dbg !7129
  call void @llvm.dbg.value(metadata !DIArgList(i8* %9, i64 %16), metadata !7128, metadata !DIExpression(DW_OP_LLVM_arg, 0, DW_OP_LLVM_arg, 1, DW_OP_constu, 1, DW_OP_mul, DW_OP_plus, DW_OP_stack_value)), !dbg !7129
  call void @llvm.dbg.value(metadata i8* %25, metadata !7131, metadata !DIExpression()), !dbg !7136
  call void @llvm.dbg.value(metadata i8* %9, metadata !7134, metadata !DIExpression()), !dbg !7136
  call void @llvm.dbg.value(metadata i64 %16, metadata !7135, metadata !DIExpression()), !dbg !7136
  switch i64 %16, label %28 [
    i64 1, label %26
    i64 0, label %32
  ], !dbg !7138

26:                                               ; preds = %24
  call void @llvm.dbg.value(metadata i8* %25, metadata !7139, metadata !DIExpression()), !dbg !7143
  call void @llvm.dbg.value(metadata i8* %9, metadata !7142, metadata !DIExpression()), !dbg !7143
  %27 = load i8, i8* %9, align 1, !dbg !7146, !tbaa !7116
  store i8 %27, i8* %25, align 1, !dbg !7147, !tbaa !7116
  br label %32, !dbg !7148

28:                                               ; preds = %24
  call void @llvm.memcpy.p0i8.p0i8.i64(i8* align 1 %25, i8* nonnull align 1 %9, i64 %16, i1 false), !dbg !7149
  br label %32, !dbg !7156

29:                                               ; preds = %0
  call void @llvm.dbg.value(metadata i8* getelementptr inbounds ([12 x i8], [12 x i8]* @.str.2, i64 0, i64 0), metadata !7050, metadata !DIExpression()), !dbg !7054
  call void @llvm.dbg.value(metadata %"class.std::ios_base::Init"* undef, metadata !7051, metadata !DIExpression()), !dbg !7054
  call void @llvm.dbg.value(metadata %"class.std::__cxx11::basic_string"* %3, metadata !7073, metadata !DIExpression()), !dbg !7157
  call void @llvm.dbg.value(metadata i8* getelementptr inbounds ([12 x i8], [12 x i8]* @.str.2, i64 0, i64 0), metadata !7078, metadata !DIExpression()), !dbg !7159
  call void @llvm.dbg.value(metadata !DIArgList(i8* getelementptr inbounds ([12 x i8], [12 x i8]* @.str.2, i64 0, i64 0), i64 11), metadata !7052, metadata !DIExpression(DW_OP_LLVM_arg, 0, DW_OP_LLVM_arg, 1, DW_OP_constu, 1, DW_OP_mul, DW_OP_plus, DW_OP_stack_value)), !dbg !7161
  call void @llvm.dbg.value(metadata %"class.std::__cxx11::basic_string"* %3, metadata !4750, metadata !DIExpression()), !dbg !7162
  call void @llvm.dbg.value(metadata i8* getelementptr inbounds ([12 x i8], [12 x i8]* @.str.2, i64 0, i64 0), metadata !4751, metadata !DIExpression()), !dbg !7162
  call void @llvm.dbg.value(metadata !DIArgList(i8* getelementptr inbounds ([12 x i8], [12 x i8]* @.str.2, i64 0, i64 0), i64 11), metadata !4752, metadata !DIExpression(DW_OP_LLVM_arg, 0, DW_OP_LLVM_arg, 1, DW_OP_constu, 1, DW_OP_mul, DW_OP_plus, DW_OP_stack_value)), !dbg !7162
  call void @llvm.dbg.declare(metadata %"class.std::ios_base::Init"* undef, metadata !4753, metadata !DIExpression()), !dbg !7164
  call void @llvm.dbg.value(metadata i64 11, metadata !4754, metadata !DIExpression()), !dbg !7162
  call void @llvm.dbg.value(metadata %"class.std::__cxx11::basic_string"* %3, metadata !4755, metadata !DIExpression()), !dbg !7162
  call void @llvm.dbg.value(metadata %"class.std::__cxx11::basic_string"* %3, metadata !7121, metadata !DIExpression()), !dbg !7165
  call void @llvm.dbg.value(metadata i8* %14, metadata !7124, metadata !DIExpression()), !dbg !7167
  call void @llvm.dbg.value(metadata i8* getelementptr inbounds ([12 x i8], [12 x i8]* @.str.2, i64 0, i64 0), metadata !7127, metadata !DIExpression()), !dbg !7167
  call void @llvm.dbg.value(metadata !DIArgList(i8* getelementptr inbounds ([12 x i8], [12 x i8]* @.str.2, i64 0, i64 0), i64 11), metadata !7128, metadata !DIExpression(DW_OP_LLVM_arg, 0, DW_OP_LLVM_arg, 1, DW_OP_constu, 1, DW_OP_mul, DW_OP_plus, DW_OP_stack_value)), !dbg !7167
  call void @llvm.dbg.value(metadata i8* %14, metadata !7131, metadata !DIExpression()), !dbg !7169
  call void @llvm.dbg.value(metadata i8* getelementptr inbounds ([12 x i8], [12 x i8]* @.str.2, i64 0, i64 0), metadata !7134, metadata !DIExpression()), !dbg !7169
  call void @llvm.dbg.value(metadata i64 11, metadata !7135, metadata !DIExpression()), !dbg !7169
  call void @llvm.memcpy.p0i8.p0i8.i64(i8* noundef nonnull align 8 dereferenceable(11) %14, i8* noundef nonnull align 1 dereferenceable(11) getelementptr inbounds ([12 x i8], [12 x i8]* @.str.2, i64 0, i64 0), i64 11, i1 false), !dbg !7171
  call void @llvm.dbg.value(metadata %"class.std::__cxx11::basic_string"* null, metadata !4755, metadata !DIExpression()), !dbg !7162
  call void @llvm.dbg.value(metadata i64 11, metadata !4754, metadata !DIExpression()), !dbg !7162
  call void @llvm.dbg.value(metadata %"class.std::__cxx11::basic_string"* %3, metadata !7173, metadata !DIExpression()), !dbg !7177
  call void @llvm.dbg.value(metadata i64 11, metadata !7176, metadata !DIExpression()), !dbg !7177
  call void @llvm.dbg.value(metadata %"class.std::__cxx11::basic_string"* %3, metadata !7179, metadata !DIExpression()), !dbg !7183
  call void @llvm.dbg.value(metadata i64 11, metadata !7182, metadata !DIExpression()), !dbg !7183
  %30 = getelementptr inbounds %"class.std::__cxx11::basic_string", %"class.std::__cxx11::basic_string"* %3, i64 0, i32 1, !dbg !7185
  store i64 11, i64* %30, align 8, !dbg !7186, !tbaa !7187
  call void @llvm.dbg.value(metadata %"class.std::__cxx11::basic_string"* %3, metadata !7121, metadata !DIExpression()), !dbg !7188
  %31 = getelementptr inbounds %"class.std::__cxx11::basic_string", %"class.std::__cxx11::basic_string"* %3, i64 0, i32 2, i32 1, i64 3, !dbg !7190
  call void @llvm.dbg.value(metadata i8* %31, metadata !7139, metadata !DIExpression()), !dbg !7191
  call void @llvm.dbg.value(metadata i8* undef, metadata !7142, metadata !DIExpression()), !dbg !7191
  store i8 0, i8* %31, align 1, !dbg !7193, !tbaa !7116
  br label %38, !dbg !7194

32:                                               ; preds = %28, %26, %24
  %33 = getelementptr inbounds %"class.std::__cxx11::basic_string", %"class.std::__cxx11::basic_string"* %3, i64 0, i32 0, i32 0, !dbg !7118
  call void @llvm.dbg.value(metadata %"class.std::__cxx11::basic_string"* null, metadata !4755, metadata !DIExpression()), !dbg !7085
  %34 = load i64, i64* %2, align 8, !dbg !7195, !tbaa !7090
  call void @llvm.dbg.value(metadata i64 %34, metadata !4754, metadata !DIExpression()), !dbg !7085
  call void @llvm.dbg.value(metadata %"class.std::__cxx11::basic_string"* %3, metadata !7173, metadata !DIExpression()), !dbg !7196
  call void @llvm.dbg.value(metadata i64 %34, metadata !7176, metadata !DIExpression()), !dbg !7196
  call void @llvm.dbg.value(metadata %"class.std::__cxx11::basic_string"* %3, metadata !7179, metadata !DIExpression()), !dbg !7198
  call void @llvm.dbg.value(metadata i64 %34, metadata !7182, metadata !DIExpression()), !dbg !7198
  %35 = getelementptr inbounds %"class.std::__cxx11::basic_string", %"class.std::__cxx11::basic_string"* %3, i64 0, i32 1, !dbg !7200
  store i64 %34, i64* %35, align 8, !dbg !7201, !tbaa !7187
  call void @llvm.dbg.value(metadata %"class.std::__cxx11::basic_string"* %3, metadata !7121, metadata !DIExpression()), !dbg !7202
  %36 = load i8*, i8** %33, align 8, !dbg !7204, !tbaa !7105
  %37 = getelementptr inbounds i8, i8* %36, i64 %34, !dbg !7205
  call void @llvm.dbg.value(metadata i8* %37, metadata !7139, metadata !DIExpression()), !dbg !7206
  call void @llvm.dbg.value(metadata i8* undef, metadata !7142, metadata !DIExpression()), !dbg !7206
  store i8 0, i8* %37, align 1, !dbg !7208, !tbaa !7116
  call void @llvm.lifetime.end.p0i8(i64 8, i8* nonnull %17) #24, !dbg !7209
  br label %38, !dbg !7194

38:                                               ; preds = %32, %29
  %39 = call i8* @getenv(i8* noundef getelementptr inbounds ([20 x i8], [20 x i8]* @.str.3, i64 0, i64 0)) #24, !dbg !7210
  call void @llvm.dbg.value(metadata i8* %39, metadata !7028, metadata !DIExpression()), !dbg !7038
  %40 = bitcast %"class.std::__cxx11::basic_string"* %4 to i8*, !dbg !7211
  call void @llvm.lifetime.start.p0i8(i64 32, i8* nonnull %40) #24, !dbg !7211
  call void @llvm.dbg.declare(metadata %"class.std::__cxx11::basic_string"* %4, metadata !7029, metadata !DIExpression()), !dbg !7212
  %41 = icmp eq i8* %39, null, !dbg !7213
  br i1 %41, label %60, label %42, !dbg !7213

42:                                               ; preds = %38
  call void @llvm.dbg.value(metadata %"class.std::__cxx11::basic_string"* %4, metadata !7042, metadata !DIExpression()), !dbg !7214
  call void @llvm.dbg.value(metadata i8* %39, metadata !7050, metadata !DIExpression()), !dbg !7214
  call void @llvm.dbg.value(metadata %"class.std::ios_base::Init"* undef, metadata !7051, metadata !DIExpression()), !dbg !7214
  call void @llvm.dbg.value(metadata %"class.std::__cxx11::basic_string"* %4, metadata !7073, metadata !DIExpression()), !dbg !7216
  %43 = getelementptr inbounds %"class.std::__cxx11::basic_string", %"class.std::__cxx11::basic_string"* %4, i64 0, i32 2, !dbg !7218
  call void @llvm.dbg.value(metadata %"class.std::__cxx11::basic_string"* %4, metadata !7058, metadata !DIExpression()), !dbg !7219
  call void @llvm.dbg.value(metadata %union.anon.6* %43, metadata !7061, metadata !DIExpression()), !dbg !7219
  call void @llvm.dbg.value(metadata %"class.std::ios_base::Init"* undef, metadata !7062, metadata !DIExpression()), !dbg !7219
  %44 = bitcast %"class.std::__cxx11::basic_string"* %4 to %union.anon.6**, !dbg !7221
  store %union.anon.6* %43, %union.anon.6** %44, align 8, !dbg !7221, !tbaa !7068
  %45 = bitcast %union.anon.6* %43 to i8*, !dbg !7222
  call void @llvm.dbg.value(metadata i8* %39, metadata !7078, metadata !DIExpression()), !dbg !7223
  %46 = call i64 @strlen(i8* noundef nonnull dereferenceable(1) %39) #24, !dbg !7225
  call void @llvm.dbg.value(metadata !DIArgList(i8* %39, i64 %46), metadata !7052, metadata !DIExpression(DW_OP_LLVM_arg, 0, DW_OP_LLVM_arg, 1, DW_OP_constu, 1, DW_OP_mul, DW_OP_plus, DW_OP_stack_value)), !dbg !7226
  call void @llvm.dbg.value(metadata %"class.std::__cxx11::basic_string"* %4, metadata !4750, metadata !DIExpression()), !dbg !7227
  call void @llvm.dbg.value(metadata i8* %39, metadata !4751, metadata !DIExpression()), !dbg !7227
  call void @llvm.dbg.value(metadata !DIArgList(i8* %39, i64 %46), metadata !4752, metadata !DIExpression(DW_OP_LLVM_arg, 0, DW_OP_LLVM_arg, 1, DW_OP_constu, 1, DW_OP_mul, DW_OP_plus, DW_OP_stack_value)), !dbg !7227
  call void @llvm.dbg.declare(metadata %"class.std::ios_base::Init"* undef, metadata !4753, metadata !DIExpression()), !dbg !7229
  %47 = bitcast i64* %1 to i8*, !dbg !7230
  call void @llvm.lifetime.start.p0i8(i64 8, i8* nonnull %47) #24, !dbg !7230
  call void @llvm.dbg.value(metadata i64 %46, metadata !4754, metadata !DIExpression()), !dbg !7227
  store i64 %46, i64* %1, align 8, !dbg !7231, !tbaa !7090
  %48 = icmp ugt i64 %46, 15, !dbg !7232
  br i1 %48, label %49, label %55, !dbg !7233

49:                                               ; preds = %42
  call void @llvm.dbg.value(metadata i64* %1, metadata !4754, metadata !DIExpression(DW_OP_deref)), !dbg !7227
  %50 = invoke noundef i8* @_ZNSt7__cxx1112basic_stringIcSt11char_traitsIcESaIcEE9_M_createERmm(%"class.std::__cxx11::basic_string"* noundef nonnull align 8 dereferenceable(32) %4, i64* noundef nonnull align 8 dereferenceable(8) %1, i64 noundef 0)
          to label %51 unwind label %151, !dbg !7234

51:                                               ; preds = %49
  call void @llvm.dbg.value(metadata %"class.std::__cxx11::basic_string"* %4, metadata !7097, metadata !DIExpression()), !dbg !7235
  call void @llvm.dbg.value(metadata i8* %50, metadata !7100, metadata !DIExpression()), !dbg !7235
  %52 = getelementptr inbounds %"class.std::__cxx11::basic_string", %"class.std::__cxx11::basic_string"* %4, i64 0, i32 0, i32 0, !dbg !7237
  store i8* %50, i8** %52, align 8, !dbg !7238, !tbaa !7105
  %53 = load i64, i64* %1, align 8, !dbg !7239, !tbaa !7090
  call void @llvm.dbg.value(metadata i64 %53, metadata !4754, metadata !DIExpression()), !dbg !7227
  call void @llvm.dbg.value(metadata %"class.std::__cxx11::basic_string"* %4, metadata !7108, metadata !DIExpression()), !dbg !7240
  call void @llvm.dbg.value(metadata i64 %53, metadata !7111, metadata !DIExpression()), !dbg !7240
  %54 = getelementptr inbounds %"class.std::__cxx11::basic_string", %"class.std::__cxx11::basic_string"* %4, i64 0, i32 2, i32 0, !dbg !7242
  store i64 %53, i64* %54, align 8, !dbg !7243, !tbaa !7116
  br label %55, !dbg !7244

55:                                               ; preds = %51, %42
  %56 = phi i8* [ %50, %51 ], [ %45, %42 ], !dbg !7245
  call void @llvm.dbg.value(metadata %"class.std::__cxx11::basic_string"* %4, metadata !4755, metadata !DIExpression()), !dbg !7227
  call void @llvm.dbg.value(metadata %"class.std::__cxx11::basic_string"* %4, metadata !7121, metadata !DIExpression()), !dbg !7247
  call void @llvm.dbg.value(metadata i8* %56, metadata !7124, metadata !DIExpression()), !dbg !7248
  call void @llvm.dbg.value(metadata i8* %39, metadata !7127, metadata !DIExpression()), !dbg !7248
  call void @llvm.dbg.value(metadata !DIArgList(i8* %39, i64 %46), metadata !7128, metadata !DIExpression(DW_OP_LLVM_arg, 0, DW_OP_LLVM_arg, 1, DW_OP_constu, 1, DW_OP_mul, DW_OP_plus, DW_OP_stack_value)), !dbg !7248
  call void @llvm.dbg.value(metadata i8* %56, metadata !7131, metadata !DIExpression()), !dbg !7250
  call void @llvm.dbg.value(metadata i8* %39, metadata !7134, metadata !DIExpression()), !dbg !7250
  call void @llvm.dbg.value(metadata i64 %46, metadata !7135, metadata !DIExpression()), !dbg !7250
  switch i64 %46, label %59 [
    i64 1, label %57
    i64 0, label %103
  ], !dbg !7252

57:                                               ; preds = %55
  call void @llvm.dbg.value(metadata i8* %56, metadata !7139, metadata !DIExpression()), !dbg !7253
  call void @llvm.dbg.value(metadata i8* %39, metadata !7142, metadata !DIExpression()), !dbg !7253
  %58 = load i8, i8* %39, align 1, !dbg !7255, !tbaa !7116
  store i8 %58, i8* %56, align 1, !dbg !7256, !tbaa !7116
  br label %103, !dbg !7257

59:                                               ; preds = %55
  call void @llvm.memcpy.p0i8.p0i8.i64(i8* align 1 %56, i8* nonnull align 1 %39, i64 %46, i1 false), !dbg !7258
  br label %103, !dbg !7260

60:                                               ; preds = %38
  %61 = bitcast %"class.std::__cxx11::basic_string"* %5 to i8*, !dbg !7261
  call void @llvm.lifetime.start.p0i8(i64 32, i8* nonnull %61) #24, !dbg !7261
  invoke void @_ZStplIcSt11char_traitsIcESaIcEENSt7__cxx1112basic_stringIT_T0_T1_EEPKS5_RKS8_(%"class.std::__cxx11::basic_string"* nonnull sret(%"class.std::__cxx11::basic_string") align 8 %5, i8* noundef getelementptr inbounds ([3 x i8], [3 x i8]* @.str.4, i64 0, i64 0), %"class.std::__cxx11::basic_string"* noundef nonnull align 8 dereferenceable(32) %3)
          to label %62 unwind label %139, !dbg !7262

62:                                               ; preds = %60
  call void @llvm.experimental.noalias.scope.decl(metadata !7263), !dbg !7266
  call void @llvm.dbg.value(metadata %"class.std::__cxx11::basic_string"* %5, metadata !7267, metadata !DIExpression()), !dbg !7273
  call void @llvm.dbg.value(metadata i8* getelementptr inbounds ([16 x i8], [16 x i8]* @.str.5, i64 0, i64 0), metadata !7272, metadata !DIExpression()), !dbg !7273
  call void @llvm.dbg.value(metadata %"class.std::__cxx11::basic_string"* %5, metadata !7275, metadata !DIExpression()), !dbg !7280
  call void @llvm.dbg.value(metadata i8* getelementptr inbounds ([16 x i8], [16 x i8]* @.str.5, i64 0, i64 0), metadata !7278, metadata !DIExpression()), !dbg !7280
  call void @llvm.dbg.value(metadata i8* getelementptr inbounds ([16 x i8], [16 x i8]* @.str.5, i64 0, i64 0), metadata !7078, metadata !DIExpression()), !dbg !7282
  call void @llvm.dbg.value(metadata i64 15, metadata !7279, metadata !DIExpression()), !dbg !7280
  call void @llvm.dbg.value(metadata %"class.std::__cxx11::basic_string"* %5, metadata !7284, metadata !DIExpression()), !dbg !7290
  call void @llvm.dbg.value(metadata i64 0, metadata !7287, metadata !DIExpression()), !dbg !7290
  call void @llvm.dbg.value(metadata i64 15, metadata !7288, metadata !DIExpression()), !dbg !7290
  call void @llvm.dbg.value(metadata i8* getelementptr inbounds ([21 x i8], [21 x i8]* @.str.14, i64 0, i64 0), metadata !7289, metadata !DIExpression()), !dbg !7290
  call void @llvm.dbg.value(metadata %"class.std::__cxx11::basic_string"* %5, metadata !7292, metadata !DIExpression()), !dbg !7295
  %63 = getelementptr inbounds %"class.std::__cxx11::basic_string", %"class.std::__cxx11::basic_string"* %5, i64 0, i32 1, !dbg !7298
  %64 = load i64, i64* %63, align 8, !dbg !7298, !tbaa !7187, !noalias !7263
  %65 = add i64 %64, -4611686018427387889, !dbg !7299
  %66 = icmp ult i64 %65, 15, !dbg !7299
  br i1 %66, label %67, label %69, !dbg !7300

67:                                               ; preds = %62
  invoke void @_ZSt20__throw_length_errorPKc(i8* noundef getelementptr inbounds ([21 x i8], [21 x i8]* @.str.14, i64 0, i64 0)) #25
          to label %68 unwind label %141, !dbg !7301

68:                                               ; preds = %67
  unreachable, !dbg !7301

69:                                               ; preds = %62
  %70 = invoke noundef nonnull align 8 dereferenceable(32) %"class.std::__cxx11::basic_string"* @_ZNSt7__cxx1112basic_stringIcSt11char_traitsIcESaIcEE9_M_appendEPKcm(%"class.std::__cxx11::basic_string"* noundef nonnull align 8 dereferenceable(32) %5, i8* noundef getelementptr inbounds ([16 x i8], [16 x i8]* @.str.5, i64 0, i64 0), i64 noundef 15)
          to label %71 unwind label %141, !dbg !7302

71:                                               ; preds = %69
  call void @llvm.dbg.value(metadata %"class.std::__cxx11::basic_string"* %4, metadata !7303, metadata !DIExpression()), !dbg !7307
  call void @llvm.dbg.value(metadata %"class.std::__cxx11::basic_string"* %70, metadata !7306, metadata !DIExpression()), !dbg !7307
  call void @llvm.dbg.value(metadata %"class.std::__cxx11::basic_string"* %4, metadata !7073, metadata !DIExpression()), !dbg !7309
  %72 = getelementptr inbounds %"class.std::__cxx11::basic_string", %"class.std::__cxx11::basic_string"* %4, i64 0, i32 2, !dbg !7311
  %73 = bitcast %union.anon.6* %72 to i8*, !dbg !7312
  call void @llvm.dbg.value(metadata %"class.std::__cxx11::basic_string"* %4, metadata !7313, metadata !DIExpression()), !dbg !7318
  call void @llvm.dbg.value(metadata i8* %73, metadata !7316, metadata !DIExpression()), !dbg !7318
  call void @llvm.dbg.value(metadata %"class.std::__cxx11::basic_string"* %70, metadata !7317, metadata !DIExpression()), !dbg !7318
  %74 = bitcast %"class.std::__cxx11::basic_string"* %4 to %union.anon.6**, !dbg !7320
  store %union.anon.6* %72, %union.anon.6** %74, align 8, !dbg !7320, !tbaa !7068, !alias.scope !7263
  call void @llvm.dbg.value(metadata %"class.std::__cxx11::basic_string"* %70, metadata !7321, metadata !DIExpression()), !dbg !7324
  call void @llvm.dbg.value(metadata %"class.std::__cxx11::basic_string"* %70, metadata !7121, metadata !DIExpression()), !dbg !7328
  %75 = getelementptr inbounds %"class.std::__cxx11::basic_string", %"class.std::__cxx11::basic_string"* %70, i64 0, i32 0, i32 0, !dbg !7330
  %76 = load i8*, i8** %75, align 8, !dbg !7330, !tbaa !7105
  call void @llvm.dbg.value(metadata %"class.std::__cxx11::basic_string"* %70, metadata !7331, metadata !DIExpression()), !dbg !7334
  %77 = getelementptr inbounds %"class.std::__cxx11::basic_string", %"class.std::__cxx11::basic_string"* %70, i64 0, i32 2, !dbg !7336
  %78 = bitcast %union.anon.6* %77 to i8*, !dbg !7337
  %79 = icmp eq i8* %76, %78, !dbg !7338
  br i1 %79, label %80, label %86, !dbg !7339

80:                                               ; preds = %71
  call void @llvm.dbg.value(metadata %"class.std::__cxx11::basic_string"* %70, metadata !7340, metadata !DIExpression()), !dbg !7343
  %81 = getelementptr inbounds %"class.std::__cxx11::basic_string", %"class.std::__cxx11::basic_string"* %70, i64 0, i32 1, !dbg !7346
  %82 = load i64, i64* %81, align 8, !dbg !7346, !tbaa !7187
  %83 = add i64 %82, 1, !dbg !7347
  call void @llvm.dbg.value(metadata i8* %73, metadata !7152, metadata !DIExpression()), !dbg !7348
  call void @llvm.dbg.value(metadata i8* %78, metadata !7153, metadata !DIExpression()), !dbg !7348
  call void @llvm.dbg.value(metadata i64 %83, metadata !7154, metadata !DIExpression()), !dbg !7348
  %84 = icmp eq i64 %83, 0, !dbg !7350
  br i1 %84, label %91, label %85, !dbg !7352

85:                                               ; preds = %80
  call void @llvm.memcpy.p0i8.p0i8.i64(i8* nonnull align 8 %73, i8* nonnull align 8 %76, i64 %83, i1 false), !dbg !7353
  br label %91, !dbg !7354

86:                                               ; preds = %71
  call void @llvm.dbg.value(metadata %"class.std::__cxx11::basic_string"* %70, metadata !7121, metadata !DIExpression()), !dbg !7355
  call void @llvm.dbg.value(metadata %"class.std::__cxx11::basic_string"* %4, metadata !7097, metadata !DIExpression()), !dbg !7358
  call void @llvm.dbg.value(metadata i8* %76, metadata !7100, metadata !DIExpression()), !dbg !7358
  %87 = getelementptr inbounds %"class.std::__cxx11::basic_string", %"class.std::__cxx11::basic_string"* %4, i64 0, i32 0, i32 0, !dbg !7360
  store i8* %76, i8** %87, align 8, !dbg !7361, !tbaa !7105, !alias.scope !7263
  %88 = getelementptr inbounds %"class.std::__cxx11::basic_string", %"class.std::__cxx11::basic_string"* %70, i64 0, i32 2, i32 0, !dbg !7362
  %89 = load i64, i64* %88, align 8, !dbg !7362, !tbaa !7116
  call void @llvm.dbg.value(metadata %"class.std::__cxx11::basic_string"* %4, metadata !7108, metadata !DIExpression()), !dbg !7363
  call void @llvm.dbg.value(metadata i64 %89, metadata !7111, metadata !DIExpression()), !dbg !7363
  %90 = getelementptr inbounds %"class.std::__cxx11::basic_string", %"class.std::__cxx11::basic_string"* %4, i64 0, i32 2, i32 0, !dbg !7365
  store i64 %89, i64* %90, align 8, !dbg !7366, !tbaa !7116, !alias.scope !7263
  br label %91

91:                                               ; preds = %86, %85, %80
  call void @llvm.dbg.value(metadata %"class.std::__cxx11::basic_string"* %70, metadata !7340, metadata !DIExpression()), !dbg !7367
  %92 = getelementptr inbounds %"class.std::__cxx11::basic_string", %"class.std::__cxx11::basic_string"* %70, i64 0, i32 1, !dbg !7369
  %93 = load i64, i64* %92, align 8, !dbg !7369, !tbaa !7187
  call void @llvm.dbg.value(metadata %"class.std::__cxx11::basic_string"* %4, metadata !7179, metadata !DIExpression()), !dbg !7370
  call void @llvm.dbg.value(metadata i64 %93, metadata !7182, metadata !DIExpression()), !dbg !7370
  %94 = getelementptr inbounds %"class.std::__cxx11::basic_string", %"class.std::__cxx11::basic_string"* %4, i64 0, i32 1, !dbg !7372
  store i64 %93, i64* %94, align 8, !dbg !7373, !tbaa !7187, !alias.scope !7263
  call void @llvm.dbg.value(metadata %"class.std::__cxx11::basic_string"* %70, metadata !7073, metadata !DIExpression()), !dbg !7374
  call void @llvm.dbg.value(metadata %"class.std::__cxx11::basic_string"* %70, metadata !7097, metadata !DIExpression()), !dbg !7376
  call void @llvm.dbg.value(metadata i8* %78, metadata !7100, metadata !DIExpression()), !dbg !7376
  %95 = bitcast %"class.std::__cxx11::basic_string"* %70 to %union.anon.6**, !dbg !7378
  store %union.anon.6* %77, %union.anon.6** %95, align 8, !dbg !7378, !tbaa !7105
  call void @llvm.dbg.value(metadata %"class.std::__cxx11::basic_string"* %70, metadata !7173, metadata !DIExpression()), !dbg !7379
  call void @llvm.dbg.value(metadata i64 0, metadata !7176, metadata !DIExpression()), !dbg !7379
  call void @llvm.dbg.value(metadata %"class.std::__cxx11::basic_string"* %70, metadata !7179, metadata !DIExpression()), !dbg !7381
  call void @llvm.dbg.value(metadata i64 0, metadata !7182, metadata !DIExpression()), !dbg !7381
  store i64 0, i64* %92, align 8, !dbg !7383, !tbaa !7187
  call void @llvm.dbg.value(metadata %"class.std::__cxx11::basic_string"* %70, metadata !7121, metadata !DIExpression()), !dbg !7384
  call void @llvm.dbg.value(metadata i8* %78, metadata !7139, metadata !DIExpression()), !dbg !7386
  call void @llvm.dbg.value(metadata i8* undef, metadata !7142, metadata !DIExpression()), !dbg !7386
  store i8 0, i8* %78, align 8, !dbg !7388, !tbaa !7116
  call void @llvm.dbg.value(metadata %"class.std::__cxx11::basic_string"* %5, metadata !7389, metadata !DIExpression()), !dbg !7392
  call void @llvm.dbg.value(metadata %"class.std::__cxx11::basic_string"* %5, metadata !7394, metadata !DIExpression()), !dbg !7397
  call void @llvm.dbg.value(metadata %"class.std::__cxx11::basic_string"* %5, metadata !7321, metadata !DIExpression()), !dbg !7400
  call void @llvm.dbg.value(metadata %"class.std::__cxx11::basic_string"* %5, metadata !7121, metadata !DIExpression()), !dbg !7403
  %96 = getelementptr inbounds %"class.std::__cxx11::basic_string", %"class.std::__cxx11::basic_string"* %5, i64 0, i32 0, i32 0, !dbg !7405
  %97 = load i8*, i8** %96, align 8, !dbg !7405, !tbaa !7105
  call void @llvm.dbg.value(metadata %"class.std::__cxx11::basic_string"* %5, metadata !7331, metadata !DIExpression()), !dbg !7406
  %98 = getelementptr inbounds %"class.std::__cxx11::basic_string", %"class.std::__cxx11::basic_string"* %5, i64 0, i32 2, !dbg !7408
  %99 = bitcast %union.anon.6* %98 to i8*, !dbg !7409
  %100 = icmp eq i8* %97, %99, !dbg !7410
  br i1 %100, label %102, label %101, !dbg !7411

101:                                              ; preds = %91
  call void @llvm.dbg.value(metadata %"class.std::__cxx11::basic_string"* %5, metadata !7412, metadata !DIExpression()), !dbg !7416
  call void @llvm.dbg.value(metadata i64 undef, metadata !7415, metadata !DIExpression()), !dbg !7416
  call void @llvm.dbg.value(metadata %"class.std::__cxx11::basic_string"* %5, metadata !7121, metadata !DIExpression()), !dbg !7418
  call void @llvm.dbg.value(metadata %"class.std::__cxx11::basic_string"* %5, metadata !7420, metadata !DIExpression()), !dbg !7425
  call void @llvm.dbg.value(metadata i8* %97, metadata !7423, metadata !DIExpression()), !dbg !7425
  call void @llvm.dbg.value(metadata i64 undef, metadata !7424, metadata !DIExpression(DW_OP_plus_uconst, 1, DW_OP_stack_value)), !dbg !7425
  call void @llvm.dbg.value(metadata %"class.std::__cxx11::basic_string"* %5, metadata !7427, metadata !DIExpression()), !dbg !7433
  call void @llvm.dbg.value(metadata i8* %97, metadata !7430, metadata !DIExpression()), !dbg !7433
  call void @llvm.dbg.value(metadata i64 undef, metadata !7431, metadata !DIExpression(DW_OP_plus_uconst, 1, DW_OP_stack_value)), !dbg !7433
  call void @_ZdlPv(i8* noundef %97) #26, !dbg !7435
  br label %102, !dbg !7436

102:                                              ; preds = %101, %91
  call void @llvm.lifetime.end.p0i8(i64 32, i8* nonnull %61) #24, !dbg !7437
  br label %109, !dbg !7437

103:                                              ; preds = %59, %57, %55
  %104 = getelementptr inbounds %"class.std::__cxx11::basic_string", %"class.std::__cxx11::basic_string"* %4, i64 0, i32 0, i32 0, !dbg !7245
  call void @llvm.dbg.value(metadata %"class.std::__cxx11::basic_string"* null, metadata !4755, metadata !DIExpression()), !dbg !7227
  %105 = load i64, i64* %1, align 8, !dbg !7438, !tbaa !7090
  call void @llvm.dbg.value(metadata i64 %105, metadata !4754, metadata !DIExpression()), !dbg !7227
  call void @llvm.dbg.value(metadata %"class.std::__cxx11::basic_string"* %4, metadata !7173, metadata !DIExpression()), !dbg !7439
  call void @llvm.dbg.value(metadata i64 %105, metadata !7176, metadata !DIExpression()), !dbg !7439
  call void @llvm.dbg.value(metadata %"class.std::__cxx11::basic_string"* %4, metadata !7179, metadata !DIExpression()), !dbg !7441
  call void @llvm.dbg.value(metadata i64 %105, metadata !7182, metadata !DIExpression()), !dbg !7441
  %106 = getelementptr inbounds %"class.std::__cxx11::basic_string", %"class.std::__cxx11::basic_string"* %4, i64 0, i32 1, !dbg !7443
  store i64 %105, i64* %106, align 8, !dbg !7444, !tbaa !7187
  call void @llvm.dbg.value(metadata %"class.std::__cxx11::basic_string"* %4, metadata !7121, metadata !DIExpression()), !dbg !7445
  %107 = load i8*, i8** %104, align 8, !dbg !7447, !tbaa !7105
  %108 = getelementptr inbounds i8, i8* %107, i64 %105, !dbg !7448
  call void @llvm.dbg.value(metadata i8* %108, metadata !7139, metadata !DIExpression()), !dbg !7449
  call void @llvm.dbg.value(metadata i8* undef, metadata !7142, metadata !DIExpression()), !dbg !7449
  store i8 0, i8* %108, align 1, !dbg !7451, !tbaa !7116
  call void @llvm.lifetime.end.p0i8(i64 8, i8* nonnull %47) #24, !dbg !7452
  br label %109, !dbg !7437

109:                                              ; preds = %103, %102
  %110 = call i64 @_ZNSt6chrono3_V212system_clock3nowEv() #24, !dbg !7453
  invoke void @_ZN8scabbard5trace10AsyncQueue16set_trace_writerERKNSt7__cxx1112basic_stringIcSt11char_traitsIcESaIcEEES9_l(%"class.scabbard::trace::AsyncQueue"* noundef nonnull align 8 dereferenceable(263408) @_ZN8scabbard5trace12TRACE_LOGGERE, %"class.std::__cxx11::basic_string"* noundef nonnull align 8 dereferenceable(32) %4, %"class.std::__cxx11::basic_string"* noundef nonnull align 8 dereferenceable(32) %3, i64 noundef %110)
          to label %111 unwind label %153, !dbg !7454

111:                                              ; preds = %109
  %112 = bitcast %"struct.scabbard::trace::DeviceAsyncQueue"** %6 to i8*, !dbg !7455
  call void @llvm.lifetime.start.p0i8(i64 8, i8* nonnull %112) #24, !dbg !7455
  call void @llvm.dbg.value(metadata %"struct.scabbard::trace::DeviceAsyncQueue"** %6, metadata !7456, metadata !DIExpression()), !dbg !7465
  call void @llvm.dbg.value(metadata i64 262656, metadata !7462, metadata !DIExpression()), !dbg !7465
  %113 = bitcast %"struct.scabbard::trace::DeviceAsyncQueue"** %6 to i8**, !dbg !7467
  %114 = invoke i32 @hipMalloc(i8** noundef nonnull %113, i64 noundef 262656)
          to label %115 unwind label %155, !dbg !7468

115:                                              ; preds = %111
  call void @llvm.dbg.value(metadata i32 %114, metadata !7030, metadata !DIExpression()), !dbg !7038
  %116 = icmp eq i32 %114, 0, !dbg !7469
  br i1 %116, label %169, label %117, !dbg !7470

117:                                              ; preds = %115
  call void @llvm.dbg.value(metadata %"class.std::basic_ostream"* @_ZSt4cerr, metadata !7471, metadata !DIExpression()), !dbg !7480
  call void @llvm.dbg.value(metadata i8* getelementptr inbounds ([104 x i8], [104 x i8]* @.str.6, i64 0, i64 0), metadata !7478, metadata !DIExpression()), !dbg !7480
  call void @llvm.dbg.value(metadata i8* getelementptr inbounds ([104 x i8], [104 x i8]* @.str.6, i64 0, i64 0), metadata !7078, metadata !DIExpression()), !dbg !7482
  %118 = invoke noundef nonnull align 8 dereferenceable(8) %"class.std::basic_ostream"* @_ZSt16__ostream_insertIcSt11char_traitsIcEERSt13basic_ostreamIT_T0_ES6_PKS3_l(%"class.std::basic_ostream"* noundef nonnull align 8 dereferenceable(8) @_ZSt4cerr, i8* noundef nonnull getelementptr inbounds ([104 x i8], [104 x i8]* @.str.6, i64 0, i64 0), i64 noundef 103)
          to label %119 unwind label %155, !dbg !7485

119:                                              ; preds = %117
  %120 = invoke noundef nonnull align 8 dereferenceable(8) %"class.std::basic_ostream"* @_ZNSolsEi(%"class.std::basic_ostream"* noundef nonnull align 8 dereferenceable(8) @_ZSt4cerr, i32 noundef %114)
          to label %121 unwind label %155, !dbg !7486

121:                                              ; preds = %119
  call void @llvm.dbg.value(metadata %"class.std::basic_ostream"* %120, metadata !7471, metadata !DIExpression()), !dbg !7487
  call void @llvm.dbg.value(metadata i8* getelementptr inbounds ([3 x i8], [3 x i8]* @.str.7, i64 0, i64 0), metadata !7478, metadata !DIExpression()), !dbg !7487
  call void @llvm.dbg.value(metadata i8* getelementptr inbounds ([3 x i8], [3 x i8]* @.str.7, i64 0, i64 0), metadata !7078, metadata !DIExpression()), !dbg !7489
  %122 = invoke noundef nonnull align 8 dereferenceable(8) %"class.std::basic_ostream"* @_ZSt16__ostream_insertIcSt11char_traitsIcEERSt13basic_ostreamIT_T0_ES6_PKS3_l(%"class.std::basic_ostream"* noundef nonnull align 8 dereferenceable(8) %120, i8* noundef nonnull getelementptr inbounds ([3 x i8], [3 x i8]* @.str.7, i64 0, i64 0), i64 noundef 2)
          to label %123 unwind label %155, !dbg !7491

123:                                              ; preds = %121
  call void @llvm.dbg.value(metadata %"class.std::basic_ostream"* %120, metadata !7492, metadata !DIExpression()), !dbg !7506
  call void @llvm.dbg.value(metadata %"class.std::basic_ostream"* (%"class.std::basic_ostream"*)* @_ZSt4endlIcSt11char_traitsIcEERSt13basic_ostreamIT_T0_ES6_, metadata !7504, metadata !DIExpression()), !dbg !7506
  %124 = invoke noundef nonnull align 8 dereferenceable(8) %"class.std::basic_ostream"* @_ZSt4endlIcSt11char_traitsIcEERSt13basic_ostreamIT_T0_ES6_(%"class.std::basic_ostream"* noundef nonnull align 8 dereferenceable(8) %120)
          to label %125 unwind label %155, !dbg !7508

125:                                              ; preds = %123
  %126 = bitcast i32* %7 to i8*, !dbg !7509
  call void @llvm.lifetime.start.p0i8(i64 4, i8* nonnull %126) #24, !dbg !7509
  call void @llvm.dbg.value(metadata i32 0, metadata !7033, metadata !DIExpression()), !dbg !7510
  store i32 0, i32* %7, align 4, !dbg !7511, !tbaa !7512
  %127 = icmp eq i32 %114, 101, !dbg !7514
  br i1 %127, label %128, label %168, !dbg !7516

128:                                              ; preds = %125
  %129 = invoke i32 @hipGetDeviceCount(i32* noundef nonnull %7)
          to label %130 unwind label %157, !dbg !7517

130:                                              ; preds = %128
  call void @llvm.dbg.value(metadata i32 %129, metadata !7030, metadata !DIExpression()), !dbg !7038
  %131 = icmp eq i32 %129, 0, !dbg !7520
  call void @llvm.dbg.value(metadata %"class.std::basic_ostream"* @_ZSt4cerr, metadata !7471, metadata !DIExpression()), !dbg !7521
  call void @llvm.dbg.value(metadata %"class.std::basic_ostream"* @_ZSt4cerr, metadata !7471, metadata !DIExpression()), !dbg !7523
  br i1 %131, label %132, label %159, !dbg !7525

132:                                              ; preds = %130
  call void @llvm.dbg.value(metadata i8* getelementptr inbounds ([44 x i8], [44 x i8]* @.str.8, i64 0, i64 0), metadata !7478, metadata !DIExpression()), !dbg !7521
  call void @llvm.dbg.value(metadata i8* getelementptr inbounds ([44 x i8], [44 x i8]* @.str.8, i64 0, i64 0), metadata !7078, metadata !DIExpression()), !dbg !7526
  %133 = invoke noundef nonnull align 8 dereferenceable(8) %"class.std::basic_ostream"* @_ZSt16__ostream_insertIcSt11char_traitsIcEERSt13basic_ostreamIT_T0_ES6_PKS3_l(%"class.std::basic_ostream"* noundef nonnull align 8 dereferenceable(8) @_ZSt4cerr, i8* noundef nonnull getelementptr inbounds ([44 x i8], [44 x i8]* @.str.8, i64 0, i64 0), i64 noundef 43)
          to label %134 unwind label %157, !dbg !7528

134:                                              ; preds = %132
  %135 = load i32, i32* %7, align 4, !dbg !7529, !tbaa !7512
  call void @llvm.dbg.value(metadata i32 %135, metadata !7033, metadata !DIExpression()), !dbg !7510
  %136 = invoke noundef nonnull align 8 dereferenceable(8) %"class.std::basic_ostream"* @_ZNSolsEi(%"class.std::basic_ostream"* noundef nonnull align 8 dereferenceable(8) @_ZSt4cerr, i32 noundef %135)
          to label %137 unwind label %157, !dbg !7530

137:                                              ; preds = %134
  call void @llvm.dbg.value(metadata %"class.std::basic_ostream"* %136, metadata !7471, metadata !DIExpression()), !dbg !7531
  call void @llvm.dbg.value(metadata i8* getelementptr inbounds ([36 x i8], [36 x i8]* @.str.9, i64 0, i64 0), metadata !7478, metadata !DIExpression()), !dbg !7531
  call void @llvm.dbg.value(metadata i8* getelementptr inbounds ([36 x i8], [36 x i8]* @.str.9, i64 0, i64 0), metadata !7078, metadata !DIExpression()), !dbg !7533
  %138 = invoke noundef nonnull align 8 dereferenceable(8) %"class.std::basic_ostream"* @_ZSt16__ostream_insertIcSt11char_traitsIcEERSt13basic_ostreamIT_T0_ES6_PKS3_l(%"class.std::basic_ostream"* noundef nonnull align 8 dereferenceable(8) %136, i8* noundef nonnull getelementptr inbounds ([36 x i8], [36 x i8]* @.str.9, i64 0, i64 0), i64 noundef 35)
          to label %165 unwind label %157, !dbg !7535

139:                                              ; preds = %60
  %140 = landingpad { i8*, i32 }
          cleanup, !dbg !7536
  br label %149, !dbg !7536

141:                                              ; preds = %69, %67
  %142 = landingpad { i8*, i32 }
          cleanup, !dbg !7536
  call void @llvm.dbg.value(metadata %"class.std::__cxx11::basic_string"* %5, metadata !7389, metadata !DIExpression()), !dbg !7537
  call void @llvm.dbg.value(metadata %"class.std::__cxx11::basic_string"* %5, metadata !7394, metadata !DIExpression()), !dbg !7539
  call void @llvm.dbg.value(metadata %"class.std::__cxx11::basic_string"* %5, metadata !7321, metadata !DIExpression()), !dbg !7541
  call void @llvm.dbg.value(metadata %"class.std::__cxx11::basic_string"* %5, metadata !7121, metadata !DIExpression()), !dbg !7543
  %143 = getelementptr inbounds %"class.std::__cxx11::basic_string", %"class.std::__cxx11::basic_string"* %5, i64 0, i32 0, i32 0, !dbg !7545
  %144 = load i8*, i8** %143, align 8, !dbg !7545, !tbaa !7105
  call void @llvm.dbg.value(metadata %"class.std::__cxx11::basic_string"* %5, metadata !7331, metadata !DIExpression()), !dbg !7546
  %145 = getelementptr inbounds %"class.std::__cxx11::basic_string", %"class.std::__cxx11::basic_string"* %5, i64 0, i32 2, !dbg !7548
  %146 = bitcast %union.anon.6* %145 to i8*, !dbg !7549
  %147 = icmp eq i8* %144, %146, !dbg !7550
  br i1 %147, label %149, label %148, !dbg !7551

148:                                              ; preds = %141
  call void @llvm.dbg.value(metadata %"class.std::__cxx11::basic_string"* %5, metadata !7412, metadata !DIExpression()), !dbg !7552
  call void @llvm.dbg.value(metadata i64 undef, metadata !7415, metadata !DIExpression()), !dbg !7552
  call void @llvm.dbg.value(metadata %"class.std::__cxx11::basic_string"* %5, metadata !7121, metadata !DIExpression()), !dbg !7554
  call void @llvm.dbg.value(metadata %"class.std::__cxx11::basic_string"* %5, metadata !7420, metadata !DIExpression()), !dbg !7556
  call void @llvm.dbg.value(metadata i8* %144, metadata !7423, metadata !DIExpression()), !dbg !7556
  call void @llvm.dbg.value(metadata i64 undef, metadata !7424, metadata !DIExpression(DW_OP_plus_uconst, 1, DW_OP_stack_value)), !dbg !7556
  call void @llvm.dbg.value(metadata %"class.std::__cxx11::basic_string"* %5, metadata !7427, metadata !DIExpression()), !dbg !7558
  call void @llvm.dbg.value(metadata i8* %144, metadata !7430, metadata !DIExpression()), !dbg !7558
  call void @llvm.dbg.value(metadata i64 undef, metadata !7431, metadata !DIExpression(DW_OP_plus_uconst, 1, DW_OP_stack_value)), !dbg !7558
  call void @_ZdlPv(i8* noundef %144) #26, !dbg !7560
  br label %149, !dbg !7561

149:                                              ; preds = %148, %141, %139
  %150 = phi { i8*, i32 } [ %140, %139 ], [ %142, %141 ], [ %142, %148 ]
  call void @llvm.lifetime.end.p0i8(i64 32, i8* nonnull %61) #24, !dbg !7437
  br label %215, !dbg !7437

151:                                              ; preds = %49
  %152 = landingpad { i8*, i32 }
          cleanup, !dbg !7536
  br label %215, !dbg !7437

153:                                              ; preds = %109
  %154 = landingpad { i8*, i32 }
          cleanup, !dbg !7536
  br label %207, !dbg !7562

155:                                              ; preds = %123, %121, %119, %117, %111
  %156 = landingpad { i8*, i32 }
          cleanup, !dbg !7563
  br label %205, !dbg !7563

157:                                              ; preds = %165, %163, %161, %159, %137, %134, %132, %128
  %158 = landingpad { i8*, i32 }
          cleanup, !dbg !7564
  call void @llvm.lifetime.end.p0i8(i64 4, i8* nonnull %126) #24, !dbg !7565
  br label %205, !dbg !7565

159:                                              ; preds = %130
  call void @llvm.dbg.value(metadata i8* getelementptr inbounds ([94 x i8], [94 x i8]* @.str.10, i64 0, i64 0), metadata !7478, metadata !DIExpression()), !dbg !7523
  call void @llvm.dbg.value(metadata i8* getelementptr inbounds ([94 x i8], [94 x i8]* @.str.10, i64 0, i64 0), metadata !7078, metadata !DIExpression()), !dbg !7566
  %160 = invoke noundef nonnull align 8 dereferenceable(8) %"class.std::basic_ostream"* @_ZSt16__ostream_insertIcSt11char_traitsIcEERSt13basic_ostreamIT_T0_ES6_PKS3_l(%"class.std::basic_ostream"* noundef nonnull align 8 dereferenceable(8) @_ZSt4cerr, i8* noundef nonnull getelementptr inbounds ([94 x i8], [94 x i8]* @.str.10, i64 0, i64 0), i64 noundef 93)
          to label %161 unwind label %157, !dbg !7568

161:                                              ; preds = %159
  %162 = invoke noundef nonnull align 8 dereferenceable(8) %"class.std::basic_ostream"* @_ZNSolsEi(%"class.std::basic_ostream"* noundef nonnull align 8 dereferenceable(8) @_ZSt4cerr, i32 noundef %129)
          to label %163 unwind label %157, !dbg !7569

163:                                              ; preds = %161
  call void @llvm.dbg.value(metadata %"class.std::basic_ostream"* %162, metadata !7471, metadata !DIExpression()), !dbg !7570
  call void @llvm.dbg.value(metadata i8* getelementptr inbounds ([3 x i8], [3 x i8]* @.str.7, i64 0, i64 0), metadata !7478, metadata !DIExpression()), !dbg !7570
  call void @llvm.dbg.value(metadata i8* getelementptr inbounds ([3 x i8], [3 x i8]* @.str.7, i64 0, i64 0), metadata !7078, metadata !DIExpression()), !dbg !7572
  %164 = invoke noundef nonnull align 8 dereferenceable(8) %"class.std::basic_ostream"* @_ZSt16__ostream_insertIcSt11char_traitsIcEERSt13basic_ostreamIT_T0_ES6_PKS3_l(%"class.std::basic_ostream"* noundef nonnull align 8 dereferenceable(8) %162, i8* noundef nonnull getelementptr inbounds ([3 x i8], [3 x i8]* @.str.7, i64 0, i64 0), i64 noundef 2)
          to label %165 unwind label %157, !dbg !7574

165:                                              ; preds = %163, %137
  %166 = phi %"class.std::basic_ostream"* [ %162, %163 ], [ %136, %137 ]
  %167 = invoke noundef nonnull align 8 dereferenceable(8) %"class.std::basic_ostream"* @_ZSt4endlIcSt11char_traitsIcEERSt13basic_ostreamIT_T0_ES6_(%"class.std::basic_ostream"* noundef nonnull align 8 dereferenceable(8) %166)
          to label %168 unwind label %157, !dbg !7575

168:                                              ; preds = %165, %125
  call void @exit(i32 noundef 1) #27, !dbg !7576
  unreachable, !dbg !7576

169:                                              ; preds = %115
  %170 = bitcast %"struct.scabbard::trace::DeviceAsyncQueue"* %8 to i8*, !dbg !7577
  call void @llvm.lifetime.start.p0i8(i64 262656, i8* nonnull %170) #24, !dbg !7577
  call void @llvm.dbg.declare(metadata %"struct.scabbard::trace::DeviceAsyncQueue"* %8, metadata !7036, metadata !DIExpression()), !dbg !7578
  invoke void @_ZN8scabbard5trace16DeviceAsyncQueueC2Ev(%"struct.scabbard::trace::DeviceAsyncQueue"* noundef nonnull align 8 dereferenceable(262656) %8)
          to label %171 unwind label %185, !dbg !7578

171:                                              ; preds = %169
  %172 = load i8*, i8** %113, align 8, !dbg !7579, !tbaa !7581
  call void @llvm.dbg.value(metadata %"struct.scabbard::trace::DeviceAsyncQueue"* undef, metadata !7032, metadata !DIExpression()), !dbg !7038
  %173 = invoke i32 @hipMemcpy(i8* noundef %172, i8* noundef nonnull %170, i64 noundef 262656, i32 noundef 1)
          to label %174 unwind label %185, !dbg !7582

174:                                              ; preds = %171
  %175 = icmp eq i32 %173, 0, !dbg !7583
  br i1 %175, label %187, label %176, !dbg !7584

176:                                              ; preds = %174
  call void @llvm.dbg.value(metadata %"class.std::basic_ostream"* @_ZSt4cerr, metadata !7471, metadata !DIExpression()), !dbg !7585
  call void @llvm.dbg.value(metadata i8* getelementptr inbounds ([115 x i8], [115 x i8]* @.str.11, i64 0, i64 0), metadata !7478, metadata !DIExpression()), !dbg !7585
  call void @llvm.dbg.value(metadata i8* getelementptr inbounds ([115 x i8], [115 x i8]* @.str.11, i64 0, i64 0), metadata !7078, metadata !DIExpression()), !dbg !7588
  %177 = invoke noundef nonnull align 8 dereferenceable(8) %"class.std::basic_ostream"* @_ZSt16__ostream_insertIcSt11char_traitsIcEERSt13basic_ostreamIT_T0_ES6_PKS3_l(%"class.std::basic_ostream"* noundef nonnull align 8 dereferenceable(8) @_ZSt4cerr, i8* noundef nonnull getelementptr inbounds ([115 x i8], [115 x i8]* @.str.11, i64 0, i64 0), i64 noundef 114)
          to label %178 unwind label %185, !dbg !7590

178:                                              ; preds = %176
  %179 = invoke noundef nonnull align 8 dereferenceable(8) %"class.std::basic_ostream"* @_ZNSolsEi(%"class.std::basic_ostream"* noundef nonnull align 8 dereferenceable(8) @_ZSt4cerr, i32 noundef 0)
          to label %180 unwind label %185, !dbg !7591

180:                                              ; preds = %178
  call void @llvm.dbg.value(metadata %"class.std::basic_ostream"* %179, metadata !7471, metadata !DIExpression()), !dbg !7592
  call void @llvm.dbg.value(metadata i8* getelementptr inbounds ([3 x i8], [3 x i8]* @.str.7, i64 0, i64 0), metadata !7478, metadata !DIExpression()), !dbg !7592
  call void @llvm.dbg.value(metadata i8* getelementptr inbounds ([3 x i8], [3 x i8]* @.str.7, i64 0, i64 0), metadata !7078, metadata !DIExpression()), !dbg !7594
  %181 = invoke noundef nonnull align 8 dereferenceable(8) %"class.std::basic_ostream"* @_ZSt16__ostream_insertIcSt11char_traitsIcEERSt13basic_ostreamIT_T0_ES6_PKS3_l(%"class.std::basic_ostream"* noundef nonnull align 8 dereferenceable(8) %179, i8* noundef nonnull getelementptr inbounds ([3 x i8], [3 x i8]* @.str.7, i64 0, i64 0), i64 noundef 2)
          to label %182 unwind label %185, !dbg !7596

182:                                              ; preds = %180
  call void @llvm.dbg.value(metadata %"class.std::basic_ostream"* %179, metadata !7492, metadata !DIExpression()), !dbg !7597
  call void @llvm.dbg.value(metadata %"class.std::basic_ostream"* (%"class.std::basic_ostream"*)* @_ZSt4endlIcSt11char_traitsIcEERSt13basic_ostreamIT_T0_ES6_, metadata !7504, metadata !DIExpression()), !dbg !7597
  %183 = invoke noundef nonnull align 8 dereferenceable(8) %"class.std::basic_ostream"* @_ZSt4endlIcSt11char_traitsIcEERSt13basic_ostreamIT_T0_ES6_(%"class.std::basic_ostream"* noundef nonnull align 8 dereferenceable(8) %179)
          to label %184 unwind label %185, !dbg !7599

184:                                              ; preds = %182
  call void @exit(i32 noundef 1) #27, !dbg !7600
  unreachable, !dbg !7600

185:                                              ; preds = %189, %187, %182, %180, %178, %176, %171, %169
  %186 = landingpad { i8*, i32 }
          cleanup, !dbg !7536
  call void @llvm.lifetime.end.p0i8(i64 262656, i8* nonnull %170) #24, !dbg !7536
  br label %205, !dbg !7536

187:                                              ; preds = %174
  %188 = load %"struct.scabbard::trace::DeviceAsyncQueue"*, %"struct.scabbard::trace::DeviceAsyncQueue"** %6, align 8, !dbg !7601, !tbaa !7581
  call void @llvm.dbg.value(metadata %"struct.scabbard::trace::DeviceAsyncQueue"* %188, metadata !7032, metadata !DIExpression()), !dbg !7038
  store %"struct.scabbard::trace::DeviceAsyncQueue"* %188, %"struct.scabbard::trace::DeviceAsyncQueue"** @_ZN8scabbard5trace19DEVICE_TRACE_LOGGERE, align 8, !dbg !7602, !tbaa !7581
  invoke void @_ZN8scabbard5trace10AsyncQueue16set_device_queueEPNS0_16DeviceAsyncQueueE(%"class.scabbard::trace::AsyncQueue"* noundef nonnull align 8 dereferenceable(263408) @_ZN8scabbard5trace12TRACE_LOGGERE, %"struct.scabbard::trace::DeviceAsyncQueue"* noundef %188)
          to label %189 unwind label %185, !dbg !7603

189:                                              ; preds = %187
  invoke void @_ZN8scabbard5trace10AsyncQueue5startEv(%"class.scabbard::trace::AsyncQueue"* noundef nonnull align 8 dereferenceable(263408) @_ZN8scabbard5trace12TRACE_LOGGERE)
          to label %190 unwind label %185, !dbg !7604

190:                                              ; preds = %189
  call void @llvm.lifetime.end.p0i8(i64 262656, i8* nonnull %170) #24, !dbg !7536
  call void @llvm.lifetime.end.p0i8(i64 8, i8* nonnull %112) #24, !dbg !7536
  call void @llvm.dbg.value(metadata %"class.std::__cxx11::basic_string"* %4, metadata !7389, metadata !DIExpression()), !dbg !7605
  call void @llvm.dbg.value(metadata %"class.std::__cxx11::basic_string"* %4, metadata !7394, metadata !DIExpression()), !dbg !7607
  call void @llvm.dbg.value(metadata %"class.std::__cxx11::basic_string"* %4, metadata !7321, metadata !DIExpression()), !dbg !7609
  call void @llvm.dbg.value(metadata %"class.std::__cxx11::basic_string"* %4, metadata !7121, metadata !DIExpression()), !dbg !7611
  %191 = getelementptr inbounds %"class.std::__cxx11::basic_string", %"class.std::__cxx11::basic_string"* %4, i64 0, i32 0, i32 0, !dbg !7613
  %192 = load i8*, i8** %191, align 8, !dbg !7613, !tbaa !7105
  call void @llvm.dbg.value(metadata %"class.std::__cxx11::basic_string"* %4, metadata !7331, metadata !DIExpression()), !dbg !7614
  %193 = getelementptr inbounds %"class.std::__cxx11::basic_string", %"class.std::__cxx11::basic_string"* %4, i64 0, i32 2, !dbg !7616
  %194 = bitcast %union.anon.6* %193 to i8*, !dbg !7617
  %195 = icmp eq i8* %192, %194, !dbg !7618
  br i1 %195, label %197, label %196, !dbg !7619

196:                                              ; preds = %190
  call void @llvm.dbg.value(metadata %"class.std::__cxx11::basic_string"* %4, metadata !7412, metadata !DIExpression()), !dbg !7620
  call void @llvm.dbg.value(metadata i64 undef, metadata !7415, metadata !DIExpression()), !dbg !7620
  call void @llvm.dbg.value(metadata %"class.std::__cxx11::basic_string"* %4, metadata !7121, metadata !DIExpression()), !dbg !7622
  call void @llvm.dbg.value(metadata %"class.std::__cxx11::basic_string"* %4, metadata !7420, metadata !DIExpression()), !dbg !7624
  call void @llvm.dbg.value(metadata i8* %192, metadata !7423, metadata !DIExpression()), !dbg !7624
  call void @llvm.dbg.value(metadata i64 undef, metadata !7424, metadata !DIExpression(DW_OP_plus_uconst, 1, DW_OP_stack_value)), !dbg !7624
  call void @llvm.dbg.value(metadata %"class.std::__cxx11::basic_string"* %4, metadata !7427, metadata !DIExpression()), !dbg !7626
  call void @llvm.dbg.value(metadata i8* %192, metadata !7430, metadata !DIExpression()), !dbg !7626
  call void @llvm.dbg.value(metadata i64 undef, metadata !7431, metadata !DIExpression(DW_OP_plus_uconst, 1, DW_OP_stack_value)), !dbg !7626
  call void @_ZdlPv(i8* noundef %192) #26, !dbg !7628
  br label %197, !dbg !7629

197:                                              ; preds = %196, %190
  call void @llvm.lifetime.end.p0i8(i64 32, i8* nonnull %40) #24, !dbg !7536
  call void @llvm.dbg.value(metadata %"class.std::__cxx11::basic_string"* %3, metadata !7389, metadata !DIExpression()), !dbg !7630
  call void @llvm.dbg.value(metadata %"class.std::__cxx11::basic_string"* %3, metadata !7394, metadata !DIExpression()), !dbg !7632
  call void @llvm.dbg.value(metadata %"class.std::__cxx11::basic_string"* %3, metadata !7321, metadata !DIExpression()), !dbg !7634
  call void @llvm.dbg.value(metadata %"class.std::__cxx11::basic_string"* %3, metadata !7121, metadata !DIExpression()), !dbg !7636
  %198 = getelementptr inbounds %"class.std::__cxx11::basic_string", %"class.std::__cxx11::basic_string"* %3, i64 0, i32 0, i32 0, !dbg !7638
  %199 = load i8*, i8** %198, align 8, !dbg !7638, !tbaa !7105
  call void @llvm.dbg.value(metadata %"class.std::__cxx11::basic_string"* %3, metadata !7331, metadata !DIExpression()), !dbg !7639
  %200 = getelementptr inbounds %"class.std::__cxx11::basic_string", %"class.std::__cxx11::basic_string"* %3, i64 0, i32 2, !dbg !7641
  %201 = bitcast %union.anon.6* %200 to i8*, !dbg !7642
  %202 = icmp eq i8* %199, %201, !dbg !7643
  br i1 %202, label %204, label %203, !dbg !7644

203:                                              ; preds = %197
  call void @llvm.dbg.value(metadata %"class.std::__cxx11::basic_string"* %3, metadata !7412, metadata !DIExpression()), !dbg !7645
  call void @llvm.dbg.value(metadata i64 undef, metadata !7415, metadata !DIExpression()), !dbg !7645
  call void @llvm.dbg.value(metadata %"class.std::__cxx11::basic_string"* %3, metadata !7121, metadata !DIExpression()), !dbg !7647
  call void @llvm.dbg.value(metadata %"class.std::__cxx11::basic_string"* %3, metadata !7420, metadata !DIExpression()), !dbg !7649
  call void @llvm.dbg.value(metadata i8* %199, metadata !7423, metadata !DIExpression()), !dbg !7649
  call void @llvm.dbg.value(metadata i64 undef, metadata !7424, metadata !DIExpression(DW_OP_plus_uconst, 1, DW_OP_stack_value)), !dbg !7649
  call void @llvm.dbg.value(metadata %"class.std::__cxx11::basic_string"* %3, metadata !7427, metadata !DIExpression()), !dbg !7651
  call void @llvm.dbg.value(metadata i8* %199, metadata !7430, metadata !DIExpression()), !dbg !7651
  call void @llvm.dbg.value(metadata i64 undef, metadata !7431, metadata !DIExpression(DW_OP_plus_uconst, 1, DW_OP_stack_value)), !dbg !7651
  call void @_ZdlPv(i8* noundef %199) #26, !dbg !7653
  br label %204, !dbg !7654

204:                                              ; preds = %203, %197
  call void @llvm.lifetime.end.p0i8(i64 32, i8* nonnull %10) #24, !dbg !7536
  ret void, !dbg !7536

205:                                              ; preds = %185, %157, %155
  %206 = phi { i8*, i32 } [ %158, %157 ], [ %156, %155 ], [ %186, %185 ]
  call void @llvm.lifetime.end.p0i8(i64 8, i8* nonnull %112) #24, !dbg !7536
  br label %207, !dbg !7536

207:                                              ; preds = %205, %153
  %208 = phi { i8*, i32 } [ %206, %205 ], [ %154, %153 ]
  call void @llvm.dbg.value(metadata %"class.std::__cxx11::basic_string"* %4, metadata !7389, metadata !DIExpression()), !dbg !7655
  call void @llvm.dbg.value(metadata %"class.std::__cxx11::basic_string"* %4, metadata !7394, metadata !DIExpression()), !dbg !7657
  call void @llvm.dbg.value(metadata %"class.std::__cxx11::basic_string"* %4, metadata !7321, metadata !DIExpression()), !dbg !7659
  call void @llvm.dbg.value(metadata %"class.std::__cxx11::basic_string"* %4, metadata !7121, metadata !DIExpression()), !dbg !7661
  %209 = getelementptr inbounds %"class.std::__cxx11::basic_string", %"class.std::__cxx11::basic_string"* %4, i64 0, i32 0, i32 0, !dbg !7663
  %210 = load i8*, i8** %209, align 8, !dbg !7663, !tbaa !7105
  call void @llvm.dbg.value(metadata %"class.std::__cxx11::basic_string"* %4, metadata !7331, metadata !DIExpression()), !dbg !7664
  %211 = getelementptr inbounds %"class.std::__cxx11::basic_string", %"class.std::__cxx11::basic_string"* %4, i64 0, i32 2, !dbg !7666
  %212 = bitcast %union.anon.6* %211 to i8*, !dbg !7667
  %213 = icmp eq i8* %210, %212, !dbg !7668
  br i1 %213, label %215, label %214, !dbg !7669

214:                                              ; preds = %207
  call void @llvm.dbg.value(metadata %"class.std::__cxx11::basic_string"* %4, metadata !7412, metadata !DIExpression()), !dbg !7670
  call void @llvm.dbg.value(metadata i64 undef, metadata !7415, metadata !DIExpression()), !dbg !7670
  call void @llvm.dbg.value(metadata %"class.std::__cxx11::basic_string"* %4, metadata !7121, metadata !DIExpression()), !dbg !7672
  call void @llvm.dbg.value(metadata %"class.std::__cxx11::basic_string"* %4, metadata !7420, metadata !DIExpression()), !dbg !7674
  call void @llvm.dbg.value(metadata i8* %210, metadata !7423, metadata !DIExpression()), !dbg !7674
  call void @llvm.dbg.value(metadata i64 undef, metadata !7424, metadata !DIExpression(DW_OP_plus_uconst, 1, DW_OP_stack_value)), !dbg !7674
  call void @llvm.dbg.value(metadata %"class.std::__cxx11::basic_string"* %4, metadata !7427, metadata !DIExpression()), !dbg !7676
  call void @llvm.dbg.value(metadata i8* %210, metadata !7430, metadata !DIExpression()), !dbg !7676
  call void @llvm.dbg.value(metadata i64 undef, metadata !7431, metadata !DIExpression(DW_OP_plus_uconst, 1, DW_OP_stack_value)), !dbg !7676
  call void @_ZdlPv(i8* noundef %210) #26, !dbg !7678
  br label %215, !dbg !7679

215:                                              ; preds = %214, %207, %151, %149
  %216 = phi { i8*, i32 } [ %152, %151 ], [ %150, %149 ], [ %208, %207 ], [ %208, %214 ]
  call void @llvm.lifetime.end.p0i8(i64 32, i8* nonnull %40) #24, !dbg !7536
  call void @llvm.dbg.value(metadata %"class.std::__cxx11::basic_string"* %3, metadata !7389, metadata !DIExpression()), !dbg !7680
  call void @llvm.dbg.value(metadata %"class.std::__cxx11::basic_string"* %3, metadata !7394, metadata !DIExpression()), !dbg !7682
  call void @llvm.dbg.value(metadata %"class.std::__cxx11::basic_string"* %3, metadata !7321, metadata !DIExpression()), !dbg !7684
  call void @llvm.dbg.value(metadata %"class.std::__cxx11::basic_string"* %3, metadata !7121, metadata !DIExpression()), !dbg !7686
  %217 = getelementptr inbounds %"class.std::__cxx11::basic_string", %"class.std::__cxx11::basic_string"* %3, i64 0, i32 0, i32 0, !dbg !7688
  %218 = load i8*, i8** %217, align 8, !dbg !7688, !tbaa !7105
  call void @llvm.dbg.value(metadata %"class.std::__cxx11::basic_string"* %3, metadata !7331, metadata !DIExpression()), !dbg !7689
  %219 = getelementptr inbounds %"class.std::__cxx11::basic_string", %"class.std::__cxx11::basic_string"* %3, i64 0, i32 2, !dbg !7691
  %220 = bitcast %union.anon.6* %219 to i8*, !dbg !7692
  %221 = icmp eq i8* %218, %220, !dbg !7693
  br i1 %221, label %223, label %222, !dbg !7694

222:                                              ; preds = %215
  call void @llvm.dbg.value(metadata %"class.std::__cxx11::basic_string"* %3, metadata !7412, metadata !DIExpression()), !dbg !7695
  call void @llvm.dbg.value(metadata i64 undef, metadata !7415, metadata !DIExpression()), !dbg !7695
  call void @llvm.dbg.value(metadata %"class.std::__cxx11::basic_string"* %3, metadata !7121, metadata !DIExpression()), !dbg !7697
  call void @llvm.dbg.value(metadata %"class.std::__cxx11::basic_string"* %3, metadata !7420, metadata !DIExpression()), !dbg !7699
  call void @llvm.dbg.value(metadata i8* %218, metadata !7423, metadata !DIExpression()), !dbg !7699
  call void @llvm.dbg.value(metadata i64 undef, metadata !7424, metadata !DIExpression(DW_OP_plus_uconst, 1, DW_OP_stack_value)), !dbg !7699
  call void @llvm.dbg.value(metadata %"class.std::__cxx11::basic_string"* %3, metadata !7427, metadata !DIExpression()), !dbg !7701
  call void @llvm.dbg.value(metadata i8* %218, metadata !7430, metadata !DIExpression()), !dbg !7701
  call void @llvm.dbg.value(metadata i64 undef, metadata !7431, metadata !DIExpression(DW_OP_plus_uconst, 1, DW_OP_stack_value)), !dbg !7701
  call void @_ZdlPv(i8* noundef %218) #26, !dbg !7703
  br label %223, !dbg !7704

223:                                              ; preds = %222, %215
  call void @llvm.lifetime.end.p0i8(i64 32, i8* nonnull %10) #24, !dbg !7536
  resume { i8*, i32 } %216, !dbg !7536
}

declare dso_local i32 @__gxx_personality_v0(...)

; Function Attrs: nofree nounwind readonly
declare !dbg !7705 dso_local noundef i8* @getenv(i8* nocapture noundef) local_unnamed_addr #4

; Function Attrs: nocallback nofree nosync nounwind readnone speculatable willreturn
declare void @llvm.dbg.value(metadata, metadata, metadata) #5

; Function Attrs: argmemonly nocallback nofree nosync nounwind willreturn
declare void @llvm.lifetime.start.p0i8(i64 immarg, i8* nocapture) #6

; Function Attrs: nocallback nofree nosync nounwind readnone speculatable willreturn
declare void @llvm.dbg.declare(metadata, metadata, metadata) #5

; Function Attrs: argmemonly mustprogress nofree nounwind readonly willreturn
declare dso_local i64 @strlen(i8* nocapture noundef) local_unnamed_addr #7

declare dso_local noundef i8* @_ZNSt7__cxx1112basic_stringIcSt11char_traitsIcESaIcEE9_M_createERmm(%"class.std::__cxx11::basic_string"* noundef nonnull align 8 dereferenceable(32), i64* noundef nonnull align 8 dereferenceable(8), i64 noundef) local_unnamed_addr #1

; Function Attrs: argmemonly nocallback nofree nounwind willreturn
declare void @llvm.memcpy.p0i8.p0i8.i64(i8* noalias nocapture writeonly, i8* noalias nocapture readonly, i64, i1 immarg) #8

; Function Attrs: argmemonly nocallback nofree nosync nounwind willreturn
declare void @llvm.lifetime.end.p0i8(i64 immarg, i8* nocapture) #6

; Function Attrs: uwtable
define linkonce_odr dso_local void @_ZStplIcSt11char_traitsIcESaIcEENSt7__cxx1112basic_stringIT_T0_T1_EEPKS5_RKS8_(%"class.std::__cxx11::basic_string"* noalias sret(%"class.std::__cxx11::basic_string") align 8 %0, i8* noundef %1, %"class.std::__cxx11::basic_string"* noundef nonnull align 8 dereferenceable(32) %2) local_unnamed_addr #0 comdat personality i8* bitcast (i32 (...)* @__gxx_personality_v0 to i8*) !dbg !7706 {
  call void @llvm.dbg.value(metadata i8* undef, metadata !7715, metadata !DIExpression(DW_OP_deref)), !dbg !7717
  call void @llvm.dbg.value(metadata i8* %1, metadata !7710, metadata !DIExpression()), !dbg !7717
  call void @llvm.dbg.value(metadata %"class.std::__cxx11::basic_string"* %2, metadata !7711, metadata !DIExpression()), !dbg !7717
  call void @llvm.dbg.value(metadata i8* %1, metadata !7078, metadata !DIExpression()), !dbg !7718
  %4 = tail call i64 @strlen(i8* noundef nonnull dereferenceable(1) %1) #24, !dbg !7720
  call void @llvm.dbg.value(metadata i64 %4, metadata !7712, metadata !DIExpression()), !dbg !7717
  call void @llvm.dbg.value(metadata %"class.std::__cxx11::basic_string"* %0, metadata !7721, metadata !DIExpression()), !dbg !7725
  call void @llvm.dbg.value(metadata %"class.std::ios_base::Init"* undef, metadata !7724, metadata !DIExpression()), !dbg !7725
  call void @llvm.dbg.value(metadata %"class.std::__cxx11::basic_string"* %0, metadata !7073, metadata !DIExpression()), !dbg !7727
  %5 = getelementptr inbounds %"class.std::__cxx11::basic_string", %"class.std::__cxx11::basic_string"* %0, i64 0, i32 2, !dbg !7729
  call void @llvm.dbg.value(metadata %"class.std::__cxx11::basic_string"* %0, metadata !7058, metadata !DIExpression()), !dbg !7730
  call void @llvm.dbg.value(metadata %union.anon.6* %5, metadata !7061, metadata !DIExpression()), !dbg !7730
  call void @llvm.dbg.value(metadata %"class.std::ios_base::Init"* undef, metadata !7062, metadata !DIExpression()), !dbg !7730
  %6 = bitcast %"class.std::__cxx11::basic_string"* %0 to %union.anon.6**, !dbg !7732
  store %union.anon.6* %5, %union.anon.6** %6, align 8, !dbg !7732, !tbaa !7068
  call void @llvm.dbg.value(metadata %"class.std::__cxx11::basic_string"* %0, metadata !7073, metadata !DIExpression()), !dbg !7733
  call void @llvm.dbg.value(metadata %"class.std::__cxx11::basic_string"* %0, metadata !7173, metadata !DIExpression()), !dbg !7740
  call void @llvm.dbg.value(metadata i64 0, metadata !7176, metadata !DIExpression()), !dbg !7740
  call void @llvm.dbg.value(metadata %"class.std::__cxx11::basic_string"* %0, metadata !7179, metadata !DIExpression()), !dbg !7742
  call void @llvm.dbg.value(metadata i64 0, metadata !7182, metadata !DIExpression()), !dbg !7742
  %7 = getelementptr inbounds %"class.std::__cxx11::basic_string", %"class.std::__cxx11::basic_string"* %0, i64 0, i32 1, !dbg !7744
  store i64 0, i64* %7, align 8, !dbg !7745, !tbaa !7187
  call void @llvm.dbg.value(metadata %"class.std::__cxx11::basic_string"* %0, metadata !7121, metadata !DIExpression()), !dbg !7746
  %8 = bitcast %union.anon.6* %5 to i8*, !dbg !7748
  call void @llvm.dbg.value(metadata i8* %8, metadata !7139, metadata !DIExpression()), !dbg !7749
  call void @llvm.dbg.value(metadata i8* undef, metadata !7142, metadata !DIExpression()), !dbg !7749
  store i8 0, i8* %8, align 8, !dbg !7751, !tbaa !7116
  call void @llvm.dbg.value(metadata %"class.std::__cxx11::basic_string"* %2, metadata !7292, metadata !DIExpression()), !dbg !7752
  %9 = getelementptr inbounds %"class.std::__cxx11::basic_string", %"class.std::__cxx11::basic_string"* %2, i64 0, i32 1, !dbg !7754
  %10 = load i64, i64* %9, align 8, !dbg !7754, !tbaa !7187
  %11 = add i64 %10, %4, !dbg !7755
  invoke void @_ZNSt7__cxx1112basic_stringIcSt11char_traitsIcESaIcEE7reserveEm(%"class.std::__cxx11::basic_string"* noundef nonnull align 8 dereferenceable(32) %0, i64 noundef %11)
          to label %12 unwind label %29, !dbg !7756

12:                                               ; preds = %3
  call void @llvm.dbg.value(metadata %"class.std::__cxx11::basic_string"* %0, metadata !7757, metadata !DIExpression()), !dbg !7762
  call void @llvm.dbg.value(metadata i8* %1, metadata !7760, metadata !DIExpression()), !dbg !7762
  call void @llvm.dbg.value(metadata i64 %4, metadata !7761, metadata !DIExpression()), !dbg !7762
  call void @llvm.dbg.value(metadata %"class.std::__cxx11::basic_string"* %0, metadata !7284, metadata !DIExpression()), !dbg !7764
  call void @llvm.dbg.value(metadata i64 0, metadata !7287, metadata !DIExpression()), !dbg !7764
  call void @llvm.dbg.value(metadata i64 %4, metadata !7288, metadata !DIExpression()), !dbg !7764
  call void @llvm.dbg.value(metadata i8* getelementptr inbounds ([21 x i8], [21 x i8]* @.str.14, i64 0, i64 0), metadata !7289, metadata !DIExpression()), !dbg !7764
  call void @llvm.dbg.value(metadata %"class.std::__cxx11::basic_string"* %0, metadata !7292, metadata !DIExpression()), !dbg !7766
  %13 = load i64, i64* %7, align 8, !dbg !7768, !tbaa !7187
  %14 = sub i64 4611686018427387903, %13, !dbg !7769
  %15 = icmp ult i64 %14, %4, !dbg !7770
  br i1 %15, label %23, label %16, !dbg !7771

16:                                               ; preds = %12
  %17 = invoke noundef nonnull align 8 dereferenceable(32) %"class.std::__cxx11::basic_string"* @_ZNSt7__cxx1112basic_stringIcSt11char_traitsIcESaIcEE9_M_appendEPKcm(%"class.std::__cxx11::basic_string"* noundef nonnull align 8 dereferenceable(32) %0, i8* noundef %1, i64 noundef %4)
          to label %18 unwind label %29, !dbg !7772

18:                                               ; preds = %16
  call void @llvm.dbg.value(metadata %"class.std::__cxx11::basic_string"* %0, metadata !7773, metadata !DIExpression()), !dbg !7777
  call void @llvm.dbg.value(metadata %"class.std::__cxx11::basic_string"* %2, metadata !7776, metadata !DIExpression()), !dbg !7777
  call void @llvm.dbg.value(metadata %"class.std::__cxx11::basic_string"* %2, metadata !7121, metadata !DIExpression()), !dbg !7779
  call void @llvm.dbg.value(metadata %"class.std::__cxx11::basic_string"* %2, metadata !7292, metadata !DIExpression()), !dbg !7781
  %19 = load i64, i64* %9, align 8, !dbg !7783, !tbaa !7187
  call void @llvm.dbg.value(metadata %"class.std::__cxx11::basic_string"* %0, metadata !7757, metadata !DIExpression()), !dbg !7784
  call void @llvm.dbg.value(metadata i8* undef, metadata !7760, metadata !DIExpression()), !dbg !7784
  call void @llvm.dbg.value(metadata i64 %19, metadata !7761, metadata !DIExpression()), !dbg !7784
  call void @llvm.dbg.value(metadata %"class.std::__cxx11::basic_string"* %0, metadata !7284, metadata !DIExpression()), !dbg !7786
  call void @llvm.dbg.value(metadata i64 0, metadata !7287, metadata !DIExpression()), !dbg !7786
  call void @llvm.dbg.value(metadata i64 %19, metadata !7288, metadata !DIExpression()), !dbg !7786
  call void @llvm.dbg.value(metadata i8* getelementptr inbounds ([21 x i8], [21 x i8]* @.str.14, i64 0, i64 0), metadata !7289, metadata !DIExpression()), !dbg !7786
  call void @llvm.dbg.value(metadata %"class.std::__cxx11::basic_string"* %0, metadata !7292, metadata !DIExpression()), !dbg !7788
  %20 = load i64, i64* %7, align 8, !dbg !7790, !tbaa !7187
  %21 = sub i64 4611686018427387903, %20, !dbg !7791
  %22 = icmp ult i64 %21, %19, !dbg !7792
  br i1 %22, label %23, label %25, !dbg !7793

23:                                               ; preds = %18, %12
  invoke void @_ZSt20__throw_length_errorPKc(i8* noundef getelementptr inbounds ([21 x i8], [21 x i8]* @.str.14, i64 0, i64 0)) #25
          to label %24 unwind label %29, !dbg !7717

24:                                               ; preds = %23
  unreachable

25:                                               ; preds = %18
  %26 = getelementptr inbounds %"class.std::__cxx11::basic_string", %"class.std::__cxx11::basic_string"* %2, i64 0, i32 0, i32 0, !dbg !7794
  %27 = load i8*, i8** %26, align 8, !dbg !7794, !tbaa !7105
  call void @llvm.dbg.value(metadata i8* %27, metadata !7760, metadata !DIExpression()), !dbg !7784
  %28 = invoke noundef nonnull align 8 dereferenceable(32) %"class.std::__cxx11::basic_string"* @_ZNSt7__cxx1112basic_stringIcSt11char_traitsIcESaIcEE9_M_appendEPKcm(%"class.std::__cxx11::basic_string"* noundef nonnull align 8 dereferenceable(32) %0, i8* noundef %27, i64 noundef %19)
          to label %35 unwind label %29, !dbg !7795

29:                                               ; preds = %25, %23, %16, %3
  %30 = landingpad { i8*, i32 }
          cleanup, !dbg !7796
  call void @llvm.dbg.value(metadata %"class.std::__cxx11::basic_string"* %0, metadata !7389, metadata !DIExpression()), !dbg !7797
  call void @llvm.dbg.value(metadata %"class.std::__cxx11::basic_string"* %0, metadata !7394, metadata !DIExpression()), !dbg !7799
  call void @llvm.dbg.value(metadata %"class.std::__cxx11::basic_string"* %0, metadata !7321, metadata !DIExpression()), !dbg !7801
  call void @llvm.dbg.value(metadata %"class.std::__cxx11::basic_string"* %0, metadata !7121, metadata !DIExpression()), !dbg !7803
  %31 = getelementptr inbounds %"class.std::__cxx11::basic_string", %"class.std::__cxx11::basic_string"* %0, i64 0, i32 0, i32 0, !dbg !7805
  %32 = load i8*, i8** %31, align 8, !dbg !7805, !tbaa !7105
  %33 = icmp eq i8* %32, %8, !dbg !7806
  br i1 %33, label %36, label %34, !dbg !7807

34:                                               ; preds = %29
  call void @llvm.dbg.value(metadata %"class.std::__cxx11::basic_string"* %0, metadata !7412, metadata !DIExpression()), !dbg !7808
  call void @llvm.dbg.value(metadata i64 undef, metadata !7415, metadata !DIExpression()), !dbg !7808
  call void @llvm.dbg.value(metadata %"class.std::__cxx11::basic_string"* %0, metadata !7121, metadata !DIExpression()), !dbg !7810
  call void @llvm.dbg.value(metadata %"class.std::__cxx11::basic_string"* %0, metadata !7420, metadata !DIExpression()), !dbg !7812
  call void @llvm.dbg.value(metadata i8* %32, metadata !7423, metadata !DIExpression()), !dbg !7812
  call void @llvm.dbg.value(metadata i64 undef, metadata !7424, metadata !DIExpression(DW_OP_plus_uconst, 1, DW_OP_stack_value)), !dbg !7812
  call void @llvm.dbg.value(metadata %"class.std::__cxx11::basic_string"* %0, metadata !7427, metadata !DIExpression()), !dbg !7814
  call void @llvm.dbg.value(metadata i8* %32, metadata !7430, metadata !DIExpression()), !dbg !7814
  call void @llvm.dbg.value(metadata i64 undef, metadata !7431, metadata !DIExpression(DW_OP_plus_uconst, 1, DW_OP_stack_value)), !dbg !7814
  tail call void @_ZdlPv(i8* noundef %32) #26, !dbg !7816
  br label %36, !dbg !7817

35:                                               ; preds = %25
  ret void, !dbg !7796

36:                                               ; preds = %34, %29
  resume { i8*, i32 } %30, !dbg !7796
}

; Function Attrs: inaccessiblememonly nocallback nofree nosync nounwind willreturn
declare void @llvm.experimental.noalias.scope.decl(metadata) #9

; Function Attrs: noreturn
declare dso_local void @_ZSt20__throw_length_errorPKc(i8* noundef) local_unnamed_addr #10

declare dso_local noundef nonnull align 8 dereferenceable(32) %"class.std::__cxx11::basic_string"* @_ZNSt7__cxx1112basic_stringIcSt11char_traitsIcESaIcEE9_M_appendEPKcm(%"class.std::__cxx11::basic_string"* noundef nonnull align 8 dereferenceable(32), i8* noundef, i64 noundef) local_unnamed_addr #1

; Function Attrs: nobuiltin nounwind
declare dso_local void @_ZdlPv(i8* noundef) local_unnamed_addr #11

; Function Attrs: nounwind
declare dso_local i64 @_ZNSt6chrono3_V212system_clock3nowEv() local_unnamed_addr #2

declare !dbg !7818 dso_local i32 @hipMalloc(i8** noundef, i64 noundef) local_unnamed_addr #1

declare dso_local noundef nonnull align 8 dereferenceable(8) %"class.std::basic_ostream"* @_ZSt16__ostream_insertIcSt11char_traitsIcEERSt13basic_ostreamIT_T0_ES6_PKS3_l(%"class.std::basic_ostream"* noundef nonnull align 8 dereferenceable(8), i8* noundef, i64 noundef) local_unnamed_addr #1

declare dso_local noundef nonnull align 8 dereferenceable(8) %"class.std::basic_ostream"* @_ZNSolsEi(%"class.std::basic_ostream"* noundef nonnull align 8 dereferenceable(8), i32 noundef) local_unnamed_addr #1

; Function Attrs: inlinehint mustprogress uwtable
declare dso_local noundef nonnull align 8 dereferenceable(8) %"class.std::basic_ostream"* @_ZSt4endlIcSt11char_traitsIcEERSt13basic_ostreamIT_T0_ES6_(%"class.std::basic_ostream"* noundef nonnull align 8 dereferenceable(8)) local_unnamed_addr #12

declare !dbg !7821 dso_local i32 @hipGetDeviceCount(i32* noundef) local_unnamed_addr #1

; Function Attrs: noreturn nounwind
declare dso_local void @exit(i32 noundef) local_unnamed_addr #13

; Function Attrs: uwtable
define linkonce_odr dso_local void @_ZN8scabbard5trace16DeviceAsyncQueueC2Ev(%"struct.scabbard::trace::DeviceAsyncQueue"* noundef nonnull align 8 dereferenceable(262656) %0) unnamed_addr #0 comdat align 2 !dbg !7824 {
  call void @llvm.dbg.value(metadata %"struct.scabbard::trace::DeviceAsyncQueue"* %0, metadata !7826, metadata !DIExpression()), !dbg !7827
  %2 = getelementptr inbounds %"struct.scabbard::trace::DeviceAsyncQueue", %"struct.scabbard::trace::DeviceAsyncQueue"* %0, i64 0, i32 0, i64 0, !dbg !7828
  %3 = getelementptr inbounds %"struct.scabbard::trace::DeviceAsyncQueue", %"struct.scabbard::trace::DeviceAsyncQueue"* %0, i64 0, i32 0, i64 64, !dbg !7828
  br label %4, !dbg !7828

4:                                                ; preds = %4, %1
  %5 = phi %"struct.scabbard::trace::DeviceAsyncQueue::Lane"* [ %2, %1 ], [ %135, %4 ], !dbg !7828
  call void @llvm.dbg.value(metadata %"struct.scabbard::trace::DeviceAsyncQueue::Lane"* %5, metadata !7829, metadata !DIExpression()), !dbg !7833
  call void @llvm.dbg.value(metadata %"struct.scabbard::trace::DeviceAsyncQueue::Lane"* %5, metadata !7835, metadata !DIExpression(DW_OP_plus_uconst, 8, DW_OP_stack_value)), !dbg !7838
  %6 = getelementptr inbounds %"struct.scabbard::trace::DeviceAsyncQueue::Lane", %"struct.scabbard::trace::DeviceAsyncQueue::Lane"* %5, i64 0, i32 1, i64 0, i32 2, !dbg !7840
  call void @llvm.dbg.value(metadata %"union.scabbard::trace::ThreadId"* %6, metadata !7841, metadata !DIExpression()), !dbg !7846
  call void @llvm.dbg.value(metadata i8* null, metadata !7844, metadata !DIExpression()), !dbg !7846
  call void @llvm.dbg.value(metadata %"struct.scabbard::trace::DeviceAsyncQueue::Lane"* %5, metadata !7835, metadata !DIExpression(DW_OP_plus_uconst, 72, DW_OP_stack_value)), !dbg !7838
  %7 = getelementptr inbounds %"struct.scabbard::trace::DeviceAsyncQueue::Lane", %"struct.scabbard::trace::DeviceAsyncQueue::Lane"* %5, i64 0, i32 1, i64 1, i32 2, !dbg !7840
  call void @llvm.dbg.value(metadata %"union.scabbard::trace::ThreadId"* %7, metadata !7841, metadata !DIExpression()), !dbg !7846
  call void @llvm.dbg.value(metadata i8* null, metadata !7844, metadata !DIExpression()), !dbg !7846
  call void @llvm.dbg.value(metadata %"struct.scabbard::trace::DeviceAsyncQueue::Lane"* %5, metadata !7835, metadata !DIExpression(DW_OP_plus_uconst, 136, DW_OP_stack_value)), !dbg !7838
  %8 = getelementptr inbounds %"struct.scabbard::trace::DeviceAsyncQueue::Lane", %"struct.scabbard::trace::DeviceAsyncQueue::Lane"* %5, i64 0, i32 1, i64 2, i32 2, !dbg !7840
  call void @llvm.dbg.value(metadata %"union.scabbard::trace::ThreadId"* %8, metadata !7841, metadata !DIExpression()), !dbg !7846
  call void @llvm.dbg.value(metadata i8* null, metadata !7844, metadata !DIExpression()), !dbg !7846
  call void @llvm.dbg.value(metadata %"struct.scabbard::trace::DeviceAsyncQueue::Lane"* %5, metadata !7835, metadata !DIExpression(DW_OP_plus_uconst, 200, DW_OP_stack_value)), !dbg !7838
  %9 = getelementptr inbounds %"struct.scabbard::trace::DeviceAsyncQueue::Lane", %"struct.scabbard::trace::DeviceAsyncQueue::Lane"* %5, i64 0, i32 1, i64 3, i32 2, !dbg !7840
  call void @llvm.dbg.value(metadata %"union.scabbard::trace::ThreadId"* %9, metadata !7841, metadata !DIExpression()), !dbg !7846
  call void @llvm.dbg.value(metadata i8* null, metadata !7844, metadata !DIExpression()), !dbg !7846
  call void @llvm.dbg.value(metadata %"struct.scabbard::trace::DeviceAsyncQueue::Lane"* %5, metadata !7835, metadata !DIExpression(DW_OP_plus_uconst, 264, DW_OP_stack_value)), !dbg !7838
  %10 = getelementptr inbounds %"struct.scabbard::trace::DeviceAsyncQueue::Lane", %"struct.scabbard::trace::DeviceAsyncQueue::Lane"* %5, i64 0, i32 1, i64 4, i32 2, !dbg !7840
  call void @llvm.dbg.value(metadata %"union.scabbard::trace::ThreadId"* %10, metadata !7841, metadata !DIExpression()), !dbg !7846
  call void @llvm.dbg.value(metadata i8* null, metadata !7844, metadata !DIExpression()), !dbg !7846
  call void @llvm.dbg.value(metadata %"struct.scabbard::trace::DeviceAsyncQueue::Lane"* %5, metadata !7835, metadata !DIExpression(DW_OP_plus_uconst, 328, DW_OP_stack_value)), !dbg !7838
  %11 = getelementptr inbounds %"struct.scabbard::trace::DeviceAsyncQueue::Lane", %"struct.scabbard::trace::DeviceAsyncQueue::Lane"* %5, i64 0, i32 1, i64 5, i32 2, !dbg !7840
  call void @llvm.dbg.value(metadata %"union.scabbard::trace::ThreadId"* %11, metadata !7841, metadata !DIExpression()), !dbg !7846
  call void @llvm.dbg.value(metadata i8* null, metadata !7844, metadata !DIExpression()), !dbg !7846
  call void @llvm.dbg.value(metadata %"struct.scabbard::trace::DeviceAsyncQueue::Lane"* %5, metadata !7835, metadata !DIExpression(DW_OP_plus_uconst, 392, DW_OP_stack_value)), !dbg !7838
  %12 = getelementptr inbounds %"struct.scabbard::trace::DeviceAsyncQueue::Lane", %"struct.scabbard::trace::DeviceAsyncQueue::Lane"* %5, i64 0, i32 1, i64 6, i32 2, !dbg !7840
  call void @llvm.dbg.value(metadata %"union.scabbard::trace::ThreadId"* %12, metadata !7841, metadata !DIExpression()), !dbg !7846
  call void @llvm.dbg.value(metadata i8* null, metadata !7844, metadata !DIExpression()), !dbg !7846
  call void @llvm.dbg.value(metadata %"struct.scabbard::trace::DeviceAsyncQueue::Lane"* %5, metadata !7835, metadata !DIExpression(DW_OP_plus_uconst, 456, DW_OP_stack_value)), !dbg !7838
  %13 = getelementptr inbounds %"struct.scabbard::trace::DeviceAsyncQueue::Lane", %"struct.scabbard::trace::DeviceAsyncQueue::Lane"* %5, i64 0, i32 1, i64 7, i32 2, !dbg !7840
  call void @llvm.dbg.value(metadata %"union.scabbard::trace::ThreadId"* %13, metadata !7841, metadata !DIExpression()), !dbg !7846
  call void @llvm.dbg.value(metadata i8* null, metadata !7844, metadata !DIExpression()), !dbg !7846
  call void @llvm.dbg.value(metadata %"struct.scabbard::trace::DeviceAsyncQueue::Lane"* %5, metadata !7835, metadata !DIExpression(DW_OP_plus_uconst, 520, DW_OP_stack_value)), !dbg !7838
  %14 = getelementptr inbounds %"struct.scabbard::trace::DeviceAsyncQueue::Lane", %"struct.scabbard::trace::DeviceAsyncQueue::Lane"* %5, i64 0, i32 1, i64 8, i32 2, !dbg !7840
  call void @llvm.dbg.value(metadata %"union.scabbard::trace::ThreadId"* %14, metadata !7841, metadata !DIExpression()), !dbg !7846
  call void @llvm.dbg.value(metadata i8* null, metadata !7844, metadata !DIExpression()), !dbg !7846
  call void @llvm.dbg.value(metadata %"struct.scabbard::trace::DeviceAsyncQueue::Lane"* %5, metadata !7835, metadata !DIExpression(DW_OP_plus_uconst, 584, DW_OP_stack_value)), !dbg !7838
  %15 = getelementptr inbounds %"struct.scabbard::trace::DeviceAsyncQueue::Lane", %"struct.scabbard::trace::DeviceAsyncQueue::Lane"* %5, i64 0, i32 1, i64 9, i32 2, !dbg !7840
  call void @llvm.dbg.value(metadata %"union.scabbard::trace::ThreadId"* %15, metadata !7841, metadata !DIExpression()), !dbg !7846
  call void @llvm.dbg.value(metadata i8* null, metadata !7844, metadata !DIExpression()), !dbg !7846
  call void @llvm.dbg.value(metadata %"struct.scabbard::trace::DeviceAsyncQueue::Lane"* %5, metadata !7835, metadata !DIExpression(DW_OP_plus_uconst, 648, DW_OP_stack_value)), !dbg !7838
  %16 = getelementptr inbounds %"struct.scabbard::trace::DeviceAsyncQueue::Lane", %"struct.scabbard::trace::DeviceAsyncQueue::Lane"* %5, i64 0, i32 1, i64 10, i32 2, !dbg !7840
  call void @llvm.dbg.value(metadata %"union.scabbard::trace::ThreadId"* %16, metadata !7841, metadata !DIExpression()), !dbg !7846
  call void @llvm.dbg.value(metadata i8* null, metadata !7844, metadata !DIExpression()), !dbg !7846
  call void @llvm.dbg.value(metadata %"struct.scabbard::trace::DeviceAsyncQueue::Lane"* %5, metadata !7835, metadata !DIExpression(DW_OP_plus_uconst, 712, DW_OP_stack_value)), !dbg !7838
  %17 = getelementptr inbounds %"struct.scabbard::trace::DeviceAsyncQueue::Lane", %"struct.scabbard::trace::DeviceAsyncQueue::Lane"* %5, i64 0, i32 1, i64 11, i32 2, !dbg !7840
  call void @llvm.dbg.value(metadata %"union.scabbard::trace::ThreadId"* %17, metadata !7841, metadata !DIExpression()), !dbg !7846
  call void @llvm.dbg.value(metadata i8* null, metadata !7844, metadata !DIExpression()), !dbg !7846
  call void @llvm.dbg.value(metadata %"struct.scabbard::trace::DeviceAsyncQueue::Lane"* %5, metadata !7835, metadata !DIExpression(DW_OP_plus_uconst, 776, DW_OP_stack_value)), !dbg !7838
  %18 = getelementptr inbounds %"struct.scabbard::trace::DeviceAsyncQueue::Lane", %"struct.scabbard::trace::DeviceAsyncQueue::Lane"* %5, i64 0, i32 1, i64 12, i32 2, !dbg !7840
  call void @llvm.dbg.value(metadata %"union.scabbard::trace::ThreadId"* %18, metadata !7841, metadata !DIExpression()), !dbg !7846
  call void @llvm.dbg.value(metadata i8* null, metadata !7844, metadata !DIExpression()), !dbg !7846
  call void @llvm.dbg.value(metadata %"struct.scabbard::trace::DeviceAsyncQueue::Lane"* %5, metadata !7835, metadata !DIExpression(DW_OP_plus_uconst, 840, DW_OP_stack_value)), !dbg !7838
  %19 = getelementptr inbounds %"struct.scabbard::trace::DeviceAsyncQueue::Lane", %"struct.scabbard::trace::DeviceAsyncQueue::Lane"* %5, i64 0, i32 1, i64 13, i32 2, !dbg !7840
  call void @llvm.dbg.value(metadata %"union.scabbard::trace::ThreadId"* %19, metadata !7841, metadata !DIExpression()), !dbg !7846
  call void @llvm.dbg.value(metadata i8* null, metadata !7844, metadata !DIExpression()), !dbg !7846
  call void @llvm.dbg.value(metadata %"struct.scabbard::trace::DeviceAsyncQueue::Lane"* %5, metadata !7835, metadata !DIExpression(DW_OP_plus_uconst, 904, DW_OP_stack_value)), !dbg !7838
  %20 = getelementptr inbounds %"struct.scabbard::trace::DeviceAsyncQueue::Lane", %"struct.scabbard::trace::DeviceAsyncQueue::Lane"* %5, i64 0, i32 1, i64 14, i32 2, !dbg !7840
  call void @llvm.dbg.value(metadata %"union.scabbard::trace::ThreadId"* %20, metadata !7841, metadata !DIExpression()), !dbg !7846
  call void @llvm.dbg.value(metadata i8* null, metadata !7844, metadata !DIExpression()), !dbg !7846
  call void @llvm.dbg.value(metadata %"struct.scabbard::trace::DeviceAsyncQueue::Lane"* %5, metadata !7835, metadata !DIExpression(DW_OP_plus_uconst, 968, DW_OP_stack_value)), !dbg !7838
  %21 = getelementptr inbounds %"struct.scabbard::trace::DeviceAsyncQueue::Lane", %"struct.scabbard::trace::DeviceAsyncQueue::Lane"* %5, i64 0, i32 1, i64 15, i32 2, !dbg !7840
  call void @llvm.dbg.value(metadata %"union.scabbard::trace::ThreadId"* %21, metadata !7841, metadata !DIExpression()), !dbg !7846
  call void @llvm.dbg.value(metadata i8* null, metadata !7844, metadata !DIExpression()), !dbg !7846
  call void @llvm.dbg.value(metadata %"struct.scabbard::trace::DeviceAsyncQueue::Lane"* %5, metadata !7835, metadata !DIExpression(DW_OP_plus_uconst, 1032, DW_OP_stack_value)), !dbg !7838
  %22 = getelementptr inbounds %"struct.scabbard::trace::DeviceAsyncQueue::Lane", %"struct.scabbard::trace::DeviceAsyncQueue::Lane"* %5, i64 0, i32 1, i64 16, i32 2, !dbg !7840
  call void @llvm.dbg.value(metadata %"union.scabbard::trace::ThreadId"* %22, metadata !7841, metadata !DIExpression()), !dbg !7846
  call void @llvm.dbg.value(metadata i8* null, metadata !7844, metadata !DIExpression()), !dbg !7846
  call void @llvm.dbg.value(metadata %"struct.scabbard::trace::DeviceAsyncQueue::Lane"* %5, metadata !7835, metadata !DIExpression(DW_OP_plus_uconst, 1096, DW_OP_stack_value)), !dbg !7838
  %23 = getelementptr inbounds %"struct.scabbard::trace::DeviceAsyncQueue::Lane", %"struct.scabbard::trace::DeviceAsyncQueue::Lane"* %5, i64 0, i32 1, i64 17, i32 2, !dbg !7840
  call void @llvm.dbg.value(metadata %"union.scabbard::trace::ThreadId"* %23, metadata !7841, metadata !DIExpression()), !dbg !7846
  call void @llvm.dbg.value(metadata i8* null, metadata !7844, metadata !DIExpression()), !dbg !7846
  call void @llvm.dbg.value(metadata %"struct.scabbard::trace::DeviceAsyncQueue::Lane"* %5, metadata !7835, metadata !DIExpression(DW_OP_plus_uconst, 1160, DW_OP_stack_value)), !dbg !7838
  %24 = getelementptr inbounds %"struct.scabbard::trace::DeviceAsyncQueue::Lane", %"struct.scabbard::trace::DeviceAsyncQueue::Lane"* %5, i64 0, i32 1, i64 18, i32 2, !dbg !7840
  call void @llvm.dbg.value(metadata %"union.scabbard::trace::ThreadId"* %24, metadata !7841, metadata !DIExpression()), !dbg !7846
  call void @llvm.dbg.value(metadata i8* null, metadata !7844, metadata !DIExpression()), !dbg !7846
  call void @llvm.dbg.value(metadata %"struct.scabbard::trace::DeviceAsyncQueue::Lane"* %5, metadata !7835, metadata !DIExpression(DW_OP_plus_uconst, 1224, DW_OP_stack_value)), !dbg !7838
  %25 = getelementptr inbounds %"struct.scabbard::trace::DeviceAsyncQueue::Lane", %"struct.scabbard::trace::DeviceAsyncQueue::Lane"* %5, i64 0, i32 1, i64 19, i32 2, !dbg !7840
  call void @llvm.dbg.value(metadata %"union.scabbard::trace::ThreadId"* %25, metadata !7841, metadata !DIExpression()), !dbg !7846
  call void @llvm.dbg.value(metadata i8* null, metadata !7844, metadata !DIExpression()), !dbg !7846
  call void @llvm.dbg.value(metadata %"struct.scabbard::trace::DeviceAsyncQueue::Lane"* %5, metadata !7835, metadata !DIExpression(DW_OP_plus_uconst, 1288, DW_OP_stack_value)), !dbg !7838
  %26 = getelementptr inbounds %"struct.scabbard::trace::DeviceAsyncQueue::Lane", %"struct.scabbard::trace::DeviceAsyncQueue::Lane"* %5, i64 0, i32 1, i64 20, i32 2, !dbg !7840
  call void @llvm.dbg.value(metadata %"union.scabbard::trace::ThreadId"* %26, metadata !7841, metadata !DIExpression()), !dbg !7846
  call void @llvm.dbg.value(metadata i8* null, metadata !7844, metadata !DIExpression()), !dbg !7846
  call void @llvm.dbg.value(metadata %"struct.scabbard::trace::DeviceAsyncQueue::Lane"* %5, metadata !7835, metadata !DIExpression(DW_OP_plus_uconst, 1352, DW_OP_stack_value)), !dbg !7838
  %27 = getelementptr inbounds %"struct.scabbard::trace::DeviceAsyncQueue::Lane", %"struct.scabbard::trace::DeviceAsyncQueue::Lane"* %5, i64 0, i32 1, i64 21, i32 2, !dbg !7840
  call void @llvm.dbg.value(metadata %"union.scabbard::trace::ThreadId"* %27, metadata !7841, metadata !DIExpression()), !dbg !7846
  call void @llvm.dbg.value(metadata i8* null, metadata !7844, metadata !DIExpression()), !dbg !7846
  call void @llvm.dbg.value(metadata %"struct.scabbard::trace::DeviceAsyncQueue::Lane"* %5, metadata !7835, metadata !DIExpression(DW_OP_plus_uconst, 1416, DW_OP_stack_value)), !dbg !7838
  %28 = getelementptr inbounds %"struct.scabbard::trace::DeviceAsyncQueue::Lane", %"struct.scabbard::trace::DeviceAsyncQueue::Lane"* %5, i64 0, i32 1, i64 22, i32 2, !dbg !7840
  call void @llvm.dbg.value(metadata %"union.scabbard::trace::ThreadId"* %28, metadata !7841, metadata !DIExpression()), !dbg !7846
  call void @llvm.dbg.value(metadata i8* null, metadata !7844, metadata !DIExpression()), !dbg !7846
  call void @llvm.dbg.value(metadata %"struct.scabbard::trace::DeviceAsyncQueue::Lane"* %5, metadata !7835, metadata !DIExpression(DW_OP_plus_uconst, 1480, DW_OP_stack_value)), !dbg !7838
  %29 = getelementptr inbounds %"struct.scabbard::trace::DeviceAsyncQueue::Lane", %"struct.scabbard::trace::DeviceAsyncQueue::Lane"* %5, i64 0, i32 1, i64 23, i32 2, !dbg !7840
  call void @llvm.dbg.value(metadata %"union.scabbard::trace::ThreadId"* %29, metadata !7841, metadata !DIExpression()), !dbg !7846
  call void @llvm.dbg.value(metadata i8* null, metadata !7844, metadata !DIExpression()), !dbg !7846
  call void @llvm.dbg.value(metadata %"struct.scabbard::trace::DeviceAsyncQueue::Lane"* %5, metadata !7835, metadata !DIExpression(DW_OP_plus_uconst, 1544, DW_OP_stack_value)), !dbg !7838
  %30 = getelementptr inbounds %"struct.scabbard::trace::DeviceAsyncQueue::Lane", %"struct.scabbard::trace::DeviceAsyncQueue::Lane"* %5, i64 0, i32 1, i64 24, i32 2, !dbg !7840
  call void @llvm.dbg.value(metadata %"union.scabbard::trace::ThreadId"* %30, metadata !7841, metadata !DIExpression()), !dbg !7846
  call void @llvm.dbg.value(metadata i8* null, metadata !7844, metadata !DIExpression()), !dbg !7846
  call void @llvm.dbg.value(metadata %"struct.scabbard::trace::DeviceAsyncQueue::Lane"* %5, metadata !7835, metadata !DIExpression(DW_OP_plus_uconst, 1608, DW_OP_stack_value)), !dbg !7838
  %31 = getelementptr inbounds %"struct.scabbard::trace::DeviceAsyncQueue::Lane", %"struct.scabbard::trace::DeviceAsyncQueue::Lane"* %5, i64 0, i32 1, i64 25, i32 2, !dbg !7840
  call void @llvm.dbg.value(metadata %"union.scabbard::trace::ThreadId"* %31, metadata !7841, metadata !DIExpression()), !dbg !7846
  call void @llvm.dbg.value(metadata i8* null, metadata !7844, metadata !DIExpression()), !dbg !7846
  call void @llvm.dbg.value(metadata %"struct.scabbard::trace::DeviceAsyncQueue::Lane"* %5, metadata !7835, metadata !DIExpression(DW_OP_plus_uconst, 1672, DW_OP_stack_value)), !dbg !7838
  %32 = getelementptr inbounds %"struct.scabbard::trace::DeviceAsyncQueue::Lane", %"struct.scabbard::trace::DeviceAsyncQueue::Lane"* %5, i64 0, i32 1, i64 26, i32 2, !dbg !7840
  call void @llvm.dbg.value(metadata %"union.scabbard::trace::ThreadId"* %32, metadata !7841, metadata !DIExpression()), !dbg !7846
  call void @llvm.dbg.value(metadata i8* null, metadata !7844, metadata !DIExpression()), !dbg !7846
  call void @llvm.dbg.value(metadata %"struct.scabbard::trace::DeviceAsyncQueue::Lane"* %5, metadata !7835, metadata !DIExpression(DW_OP_plus_uconst, 1736, DW_OP_stack_value)), !dbg !7838
  %33 = getelementptr inbounds %"struct.scabbard::trace::DeviceAsyncQueue::Lane", %"struct.scabbard::trace::DeviceAsyncQueue::Lane"* %5, i64 0, i32 1, i64 27, i32 2, !dbg !7840
  call void @llvm.dbg.value(metadata %"union.scabbard::trace::ThreadId"* %33, metadata !7841, metadata !DIExpression()), !dbg !7846
  call void @llvm.dbg.value(metadata i8* null, metadata !7844, metadata !DIExpression()), !dbg !7846
  call void @llvm.dbg.value(metadata %"struct.scabbard::trace::DeviceAsyncQueue::Lane"* %5, metadata !7835, metadata !DIExpression(DW_OP_plus_uconst, 1800, DW_OP_stack_value)), !dbg !7838
  %34 = getelementptr inbounds %"struct.scabbard::trace::DeviceAsyncQueue::Lane", %"struct.scabbard::trace::DeviceAsyncQueue::Lane"* %5, i64 0, i32 1, i64 28, i32 2, !dbg !7840
  call void @llvm.dbg.value(metadata %"union.scabbard::trace::ThreadId"* %34, metadata !7841, metadata !DIExpression()), !dbg !7846
  call void @llvm.dbg.value(metadata i8* null, metadata !7844, metadata !DIExpression()), !dbg !7846
  call void @llvm.dbg.value(metadata %"struct.scabbard::trace::DeviceAsyncQueue::Lane"* %5, metadata !7835, metadata !DIExpression(DW_OP_plus_uconst, 1864, DW_OP_stack_value)), !dbg !7838
  %35 = getelementptr inbounds %"struct.scabbard::trace::DeviceAsyncQueue::Lane", %"struct.scabbard::trace::DeviceAsyncQueue::Lane"* %5, i64 0, i32 1, i64 29, i32 2, !dbg !7840
  call void @llvm.dbg.value(metadata %"union.scabbard::trace::ThreadId"* %35, metadata !7841, metadata !DIExpression()), !dbg !7846
  call void @llvm.dbg.value(metadata i8* null, metadata !7844, metadata !DIExpression()), !dbg !7846
  call void @llvm.dbg.value(metadata %"struct.scabbard::trace::DeviceAsyncQueue::Lane"* %5, metadata !7835, metadata !DIExpression(DW_OP_plus_uconst, 1928, DW_OP_stack_value)), !dbg !7838
  %36 = getelementptr inbounds %"struct.scabbard::trace::DeviceAsyncQueue::Lane", %"struct.scabbard::trace::DeviceAsyncQueue::Lane"* %5, i64 0, i32 1, i64 30, i32 2, !dbg !7840
  call void @llvm.dbg.value(metadata %"union.scabbard::trace::ThreadId"* %36, metadata !7841, metadata !DIExpression()), !dbg !7846
  call void @llvm.dbg.value(metadata i8* null, metadata !7844, metadata !DIExpression()), !dbg !7846
  call void @llvm.dbg.value(metadata %"struct.scabbard::trace::DeviceAsyncQueue::Lane"* %5, metadata !7835, metadata !DIExpression(DW_OP_plus_uconst, 1992, DW_OP_stack_value)), !dbg !7838
  %37 = getelementptr inbounds %"struct.scabbard::trace::DeviceAsyncQueue::Lane", %"struct.scabbard::trace::DeviceAsyncQueue::Lane"* %5, i64 0, i32 1, i64 31, i32 2, !dbg !7840
  call void @llvm.dbg.value(metadata %"union.scabbard::trace::ThreadId"* %37, metadata !7841, metadata !DIExpression()), !dbg !7846
  call void @llvm.dbg.value(metadata i8* null, metadata !7844, metadata !DIExpression()), !dbg !7846
  call void @llvm.dbg.value(metadata %"struct.scabbard::trace::DeviceAsyncQueue::Lane"* %5, metadata !7835, metadata !DIExpression(DW_OP_plus_uconst, 2056, DW_OP_stack_value)), !dbg !7838
  %38 = getelementptr inbounds %"struct.scabbard::trace::DeviceAsyncQueue::Lane", %"struct.scabbard::trace::DeviceAsyncQueue::Lane"* %5, i64 0, i32 1, i64 32, i32 2, !dbg !7840
  call void @llvm.dbg.value(metadata %"union.scabbard::trace::ThreadId"* %38, metadata !7841, metadata !DIExpression()), !dbg !7846
  call void @llvm.dbg.value(metadata i8* null, metadata !7844, metadata !DIExpression()), !dbg !7846
  call void @llvm.dbg.value(metadata %"struct.scabbard::trace::DeviceAsyncQueue::Lane"* %5, metadata !7835, metadata !DIExpression(DW_OP_plus_uconst, 2120, DW_OP_stack_value)), !dbg !7838
  %39 = getelementptr inbounds %"struct.scabbard::trace::DeviceAsyncQueue::Lane", %"struct.scabbard::trace::DeviceAsyncQueue::Lane"* %5, i64 0, i32 1, i64 33, i32 2, !dbg !7840
  call void @llvm.dbg.value(metadata %"union.scabbard::trace::ThreadId"* %39, metadata !7841, metadata !DIExpression()), !dbg !7846
  call void @llvm.dbg.value(metadata i8* null, metadata !7844, metadata !DIExpression()), !dbg !7846
  call void @llvm.dbg.value(metadata %"struct.scabbard::trace::DeviceAsyncQueue::Lane"* %5, metadata !7835, metadata !DIExpression(DW_OP_plus_uconst, 2184, DW_OP_stack_value)), !dbg !7838
  %40 = getelementptr inbounds %"struct.scabbard::trace::DeviceAsyncQueue::Lane", %"struct.scabbard::trace::DeviceAsyncQueue::Lane"* %5, i64 0, i32 1, i64 34, i32 2, !dbg !7840
  call void @llvm.dbg.value(metadata %"union.scabbard::trace::ThreadId"* %40, metadata !7841, metadata !DIExpression()), !dbg !7846
  call void @llvm.dbg.value(metadata i8* null, metadata !7844, metadata !DIExpression()), !dbg !7846
  call void @llvm.dbg.value(metadata %"struct.scabbard::trace::DeviceAsyncQueue::Lane"* %5, metadata !7835, metadata !DIExpression(DW_OP_plus_uconst, 2248, DW_OP_stack_value)), !dbg !7838
  %41 = getelementptr inbounds %"struct.scabbard::trace::DeviceAsyncQueue::Lane", %"struct.scabbard::trace::DeviceAsyncQueue::Lane"* %5, i64 0, i32 1, i64 35, i32 2, !dbg !7840
  call void @llvm.dbg.value(metadata %"union.scabbard::trace::ThreadId"* %41, metadata !7841, metadata !DIExpression()), !dbg !7846
  call void @llvm.dbg.value(metadata i8* null, metadata !7844, metadata !DIExpression()), !dbg !7846
  call void @llvm.dbg.value(metadata %"struct.scabbard::trace::DeviceAsyncQueue::Lane"* %5, metadata !7835, metadata !DIExpression(DW_OP_plus_uconst, 2312, DW_OP_stack_value)), !dbg !7838
  %42 = getelementptr inbounds %"struct.scabbard::trace::DeviceAsyncQueue::Lane", %"struct.scabbard::trace::DeviceAsyncQueue::Lane"* %5, i64 0, i32 1, i64 36, i32 2, !dbg !7840
  call void @llvm.dbg.value(metadata %"union.scabbard::trace::ThreadId"* %42, metadata !7841, metadata !DIExpression()), !dbg !7846
  call void @llvm.dbg.value(metadata i8* null, metadata !7844, metadata !DIExpression()), !dbg !7846
  call void @llvm.dbg.value(metadata %"struct.scabbard::trace::DeviceAsyncQueue::Lane"* %5, metadata !7835, metadata !DIExpression(DW_OP_plus_uconst, 2376, DW_OP_stack_value)), !dbg !7838
  %43 = getelementptr inbounds %"struct.scabbard::trace::DeviceAsyncQueue::Lane", %"struct.scabbard::trace::DeviceAsyncQueue::Lane"* %5, i64 0, i32 1, i64 37, i32 2, !dbg !7840
  call void @llvm.dbg.value(metadata %"union.scabbard::trace::ThreadId"* %43, metadata !7841, metadata !DIExpression()), !dbg !7846
  call void @llvm.dbg.value(metadata i8* null, metadata !7844, metadata !DIExpression()), !dbg !7846
  call void @llvm.dbg.value(metadata %"struct.scabbard::trace::DeviceAsyncQueue::Lane"* %5, metadata !7835, metadata !DIExpression(DW_OP_plus_uconst, 2440, DW_OP_stack_value)), !dbg !7838
  %44 = getelementptr inbounds %"struct.scabbard::trace::DeviceAsyncQueue::Lane", %"struct.scabbard::trace::DeviceAsyncQueue::Lane"* %5, i64 0, i32 1, i64 38, i32 2, !dbg !7840
  call void @llvm.dbg.value(metadata %"union.scabbard::trace::ThreadId"* %44, metadata !7841, metadata !DIExpression()), !dbg !7846
  call void @llvm.dbg.value(metadata i8* null, metadata !7844, metadata !DIExpression()), !dbg !7846
  call void @llvm.dbg.value(metadata %"struct.scabbard::trace::DeviceAsyncQueue::Lane"* %5, metadata !7835, metadata !DIExpression(DW_OP_plus_uconst, 2504, DW_OP_stack_value)), !dbg !7838
  %45 = getelementptr inbounds %"struct.scabbard::trace::DeviceAsyncQueue::Lane", %"struct.scabbard::trace::DeviceAsyncQueue::Lane"* %5, i64 0, i32 1, i64 39, i32 2, !dbg !7840
  call void @llvm.dbg.value(metadata %"union.scabbard::trace::ThreadId"* %45, metadata !7841, metadata !DIExpression()), !dbg !7846
  call void @llvm.dbg.value(metadata i8* null, metadata !7844, metadata !DIExpression()), !dbg !7846
  call void @llvm.dbg.value(metadata %"struct.scabbard::trace::DeviceAsyncQueue::Lane"* %5, metadata !7835, metadata !DIExpression(DW_OP_plus_uconst, 2568, DW_OP_stack_value)), !dbg !7838
  %46 = getelementptr inbounds %"struct.scabbard::trace::DeviceAsyncQueue::Lane", %"struct.scabbard::trace::DeviceAsyncQueue::Lane"* %5, i64 0, i32 1, i64 40, i32 2, !dbg !7840
  call void @llvm.dbg.value(metadata %"union.scabbard::trace::ThreadId"* %46, metadata !7841, metadata !DIExpression()), !dbg !7846
  call void @llvm.dbg.value(metadata i8* null, metadata !7844, metadata !DIExpression()), !dbg !7846
  call void @llvm.dbg.value(metadata %"struct.scabbard::trace::DeviceAsyncQueue::Lane"* %5, metadata !7835, metadata !DIExpression(DW_OP_plus_uconst, 2632, DW_OP_stack_value)), !dbg !7838
  %47 = getelementptr inbounds %"struct.scabbard::trace::DeviceAsyncQueue::Lane", %"struct.scabbard::trace::DeviceAsyncQueue::Lane"* %5, i64 0, i32 1, i64 41, i32 2, !dbg !7840
  call void @llvm.dbg.value(metadata %"union.scabbard::trace::ThreadId"* %47, metadata !7841, metadata !DIExpression()), !dbg !7846
  call void @llvm.dbg.value(metadata i8* null, metadata !7844, metadata !DIExpression()), !dbg !7846
  call void @llvm.dbg.value(metadata %"struct.scabbard::trace::DeviceAsyncQueue::Lane"* %5, metadata !7835, metadata !DIExpression(DW_OP_plus_uconst, 2696, DW_OP_stack_value)), !dbg !7838
  %48 = getelementptr inbounds %"struct.scabbard::trace::DeviceAsyncQueue::Lane", %"struct.scabbard::trace::DeviceAsyncQueue::Lane"* %5, i64 0, i32 1, i64 42, i32 2, !dbg !7840
  call void @llvm.dbg.value(metadata %"union.scabbard::trace::ThreadId"* %48, metadata !7841, metadata !DIExpression()), !dbg !7846
  call void @llvm.dbg.value(metadata i8* null, metadata !7844, metadata !DIExpression()), !dbg !7846
  call void @llvm.dbg.value(metadata %"struct.scabbard::trace::DeviceAsyncQueue::Lane"* %5, metadata !7835, metadata !DIExpression(DW_OP_plus_uconst, 2760, DW_OP_stack_value)), !dbg !7838
  %49 = getelementptr inbounds %"struct.scabbard::trace::DeviceAsyncQueue::Lane", %"struct.scabbard::trace::DeviceAsyncQueue::Lane"* %5, i64 0, i32 1, i64 43, i32 2, !dbg !7840
  call void @llvm.dbg.value(metadata %"union.scabbard::trace::ThreadId"* %49, metadata !7841, metadata !DIExpression()), !dbg !7846
  call void @llvm.dbg.value(metadata i8* null, metadata !7844, metadata !DIExpression()), !dbg !7846
  call void @llvm.dbg.value(metadata %"struct.scabbard::trace::DeviceAsyncQueue::Lane"* %5, metadata !7835, metadata !DIExpression(DW_OP_plus_uconst, 2824, DW_OP_stack_value)), !dbg !7838
  %50 = getelementptr inbounds %"struct.scabbard::trace::DeviceAsyncQueue::Lane", %"struct.scabbard::trace::DeviceAsyncQueue::Lane"* %5, i64 0, i32 1, i64 44, i32 2, !dbg !7840
  call void @llvm.dbg.value(metadata %"union.scabbard::trace::ThreadId"* %50, metadata !7841, metadata !DIExpression()), !dbg !7846
  call void @llvm.dbg.value(metadata i8* null, metadata !7844, metadata !DIExpression()), !dbg !7846
  call void @llvm.dbg.value(metadata %"struct.scabbard::trace::DeviceAsyncQueue::Lane"* %5, metadata !7835, metadata !DIExpression(DW_OP_plus_uconst, 2888, DW_OP_stack_value)), !dbg !7838
  %51 = getelementptr inbounds %"struct.scabbard::trace::DeviceAsyncQueue::Lane", %"struct.scabbard::trace::DeviceAsyncQueue::Lane"* %5, i64 0, i32 1, i64 45, i32 2, !dbg !7840
  call void @llvm.dbg.value(metadata %"union.scabbard::trace::ThreadId"* %51, metadata !7841, metadata !DIExpression()), !dbg !7846
  call void @llvm.dbg.value(metadata i8* null, metadata !7844, metadata !DIExpression()), !dbg !7846
  call void @llvm.dbg.value(metadata %"struct.scabbard::trace::DeviceAsyncQueue::Lane"* %5, metadata !7835, metadata !DIExpression(DW_OP_plus_uconst, 2952, DW_OP_stack_value)), !dbg !7838
  %52 = getelementptr inbounds %"struct.scabbard::trace::DeviceAsyncQueue::Lane", %"struct.scabbard::trace::DeviceAsyncQueue::Lane"* %5, i64 0, i32 1, i64 46, i32 2, !dbg !7840
  call void @llvm.dbg.value(metadata %"union.scabbard::trace::ThreadId"* %52, metadata !7841, metadata !DIExpression()), !dbg !7846
  call void @llvm.dbg.value(metadata i8* null, metadata !7844, metadata !DIExpression()), !dbg !7846
  call void @llvm.dbg.value(metadata %"struct.scabbard::trace::DeviceAsyncQueue::Lane"* %5, metadata !7835, metadata !DIExpression(DW_OP_plus_uconst, 3016, DW_OP_stack_value)), !dbg !7838
  %53 = getelementptr inbounds %"struct.scabbard::trace::DeviceAsyncQueue::Lane", %"struct.scabbard::trace::DeviceAsyncQueue::Lane"* %5, i64 0, i32 1, i64 47, i32 2, !dbg !7840
  call void @llvm.dbg.value(metadata %"union.scabbard::trace::ThreadId"* %53, metadata !7841, metadata !DIExpression()), !dbg !7846
  call void @llvm.dbg.value(metadata i8* null, metadata !7844, metadata !DIExpression()), !dbg !7846
  call void @llvm.dbg.value(metadata %"struct.scabbard::trace::DeviceAsyncQueue::Lane"* %5, metadata !7835, metadata !DIExpression(DW_OP_plus_uconst, 3080, DW_OP_stack_value)), !dbg !7838
  %54 = getelementptr inbounds %"struct.scabbard::trace::DeviceAsyncQueue::Lane", %"struct.scabbard::trace::DeviceAsyncQueue::Lane"* %5, i64 0, i32 1, i64 48, i32 2, !dbg !7840
  call void @llvm.dbg.value(metadata %"union.scabbard::trace::ThreadId"* %54, metadata !7841, metadata !DIExpression()), !dbg !7846
  call void @llvm.dbg.value(metadata i8* null, metadata !7844, metadata !DIExpression()), !dbg !7846
  call void @llvm.dbg.value(metadata %"struct.scabbard::trace::DeviceAsyncQueue::Lane"* %5, metadata !7835, metadata !DIExpression(DW_OP_plus_uconst, 3144, DW_OP_stack_value)), !dbg !7838
  %55 = getelementptr inbounds %"struct.scabbard::trace::DeviceAsyncQueue::Lane", %"struct.scabbard::trace::DeviceAsyncQueue::Lane"* %5, i64 0, i32 1, i64 49, i32 2, !dbg !7840
  call void @llvm.dbg.value(metadata %"union.scabbard::trace::ThreadId"* %55, metadata !7841, metadata !DIExpression()), !dbg !7846
  call void @llvm.dbg.value(metadata i8* null, metadata !7844, metadata !DIExpression()), !dbg !7846
  call void @llvm.dbg.value(metadata %"struct.scabbard::trace::DeviceAsyncQueue::Lane"* %5, metadata !7835, metadata !DIExpression(DW_OP_plus_uconst, 3208, DW_OP_stack_value)), !dbg !7838
  %56 = getelementptr inbounds %"struct.scabbard::trace::DeviceAsyncQueue::Lane", %"struct.scabbard::trace::DeviceAsyncQueue::Lane"* %5, i64 0, i32 1, i64 50, i32 2, !dbg !7840
  call void @llvm.dbg.value(metadata %"union.scabbard::trace::ThreadId"* %56, metadata !7841, metadata !DIExpression()), !dbg !7846
  call void @llvm.dbg.value(metadata i8* null, metadata !7844, metadata !DIExpression()), !dbg !7846
  call void @llvm.dbg.value(metadata %"struct.scabbard::trace::DeviceAsyncQueue::Lane"* %5, metadata !7835, metadata !DIExpression(DW_OP_plus_uconst, 3272, DW_OP_stack_value)), !dbg !7838
  %57 = getelementptr inbounds %"struct.scabbard::trace::DeviceAsyncQueue::Lane", %"struct.scabbard::trace::DeviceAsyncQueue::Lane"* %5, i64 0, i32 1, i64 51, i32 2, !dbg !7840
  call void @llvm.dbg.value(metadata %"union.scabbard::trace::ThreadId"* %57, metadata !7841, metadata !DIExpression()), !dbg !7846
  call void @llvm.dbg.value(metadata i8* null, metadata !7844, metadata !DIExpression()), !dbg !7846
  call void @llvm.dbg.value(metadata %"struct.scabbard::trace::DeviceAsyncQueue::Lane"* %5, metadata !7835, metadata !DIExpression(DW_OP_plus_uconst, 3336, DW_OP_stack_value)), !dbg !7838
  %58 = getelementptr inbounds %"struct.scabbard::trace::DeviceAsyncQueue::Lane", %"struct.scabbard::trace::DeviceAsyncQueue::Lane"* %5, i64 0, i32 1, i64 52, i32 2, !dbg !7840
  call void @llvm.dbg.value(metadata %"union.scabbard::trace::ThreadId"* %58, metadata !7841, metadata !DIExpression()), !dbg !7846
  call void @llvm.dbg.value(metadata i8* null, metadata !7844, metadata !DIExpression()), !dbg !7846
  call void @llvm.dbg.value(metadata %"struct.scabbard::trace::DeviceAsyncQueue::Lane"* %5, metadata !7835, metadata !DIExpression(DW_OP_plus_uconst, 3400, DW_OP_stack_value)), !dbg !7838
  %59 = getelementptr inbounds %"struct.scabbard::trace::DeviceAsyncQueue::Lane", %"struct.scabbard::trace::DeviceAsyncQueue::Lane"* %5, i64 0, i32 1, i64 53, i32 2, !dbg !7840
  call void @llvm.dbg.value(metadata %"union.scabbard::trace::ThreadId"* %59, metadata !7841, metadata !DIExpression()), !dbg !7846
  call void @llvm.dbg.value(metadata i8* null, metadata !7844, metadata !DIExpression()), !dbg !7846
  call void @llvm.dbg.value(metadata %"struct.scabbard::trace::DeviceAsyncQueue::Lane"* %5, metadata !7835, metadata !DIExpression(DW_OP_plus_uconst, 3464, DW_OP_stack_value)), !dbg !7838
  %60 = getelementptr inbounds %"struct.scabbard::trace::DeviceAsyncQueue::Lane", %"struct.scabbard::trace::DeviceAsyncQueue::Lane"* %5, i64 0, i32 1, i64 54, i32 2, !dbg !7840
  call void @llvm.dbg.value(metadata %"union.scabbard::trace::ThreadId"* %60, metadata !7841, metadata !DIExpression()), !dbg !7846
  call void @llvm.dbg.value(metadata i8* null, metadata !7844, metadata !DIExpression()), !dbg !7846
  call void @llvm.dbg.value(metadata %"struct.scabbard::trace::DeviceAsyncQueue::Lane"* %5, metadata !7835, metadata !DIExpression(DW_OP_plus_uconst, 3528, DW_OP_stack_value)), !dbg !7838
  %61 = getelementptr inbounds %"struct.scabbard::trace::DeviceAsyncQueue::Lane", %"struct.scabbard::trace::DeviceAsyncQueue::Lane"* %5, i64 0, i32 1, i64 55, i32 2, !dbg !7840
  call void @llvm.dbg.value(metadata %"union.scabbard::trace::ThreadId"* %61, metadata !7841, metadata !DIExpression()), !dbg !7846
  call void @llvm.dbg.value(metadata i8* null, metadata !7844, metadata !DIExpression()), !dbg !7846
  call void @llvm.dbg.value(metadata %"struct.scabbard::trace::DeviceAsyncQueue::Lane"* %5, metadata !7835, metadata !DIExpression(DW_OP_plus_uconst, 3592, DW_OP_stack_value)), !dbg !7838
  %62 = getelementptr inbounds %"struct.scabbard::trace::DeviceAsyncQueue::Lane", %"struct.scabbard::trace::DeviceAsyncQueue::Lane"* %5, i64 0, i32 1, i64 56, i32 2, !dbg !7840
  call void @llvm.dbg.value(metadata %"union.scabbard::trace::ThreadId"* %62, metadata !7841, metadata !DIExpression()), !dbg !7846
  call void @llvm.dbg.value(metadata i8* null, metadata !7844, metadata !DIExpression()), !dbg !7846
  call void @llvm.dbg.value(metadata %"struct.scabbard::trace::DeviceAsyncQueue::Lane"* %5, metadata !7835, metadata !DIExpression(DW_OP_plus_uconst, 3656, DW_OP_stack_value)), !dbg !7838
  %63 = getelementptr inbounds %"struct.scabbard::trace::DeviceAsyncQueue::Lane", %"struct.scabbard::trace::DeviceAsyncQueue::Lane"* %5, i64 0, i32 1, i64 57, i32 2, !dbg !7840
  call void @llvm.dbg.value(metadata %"union.scabbard::trace::ThreadId"* %63, metadata !7841, metadata !DIExpression()), !dbg !7846
  call void @llvm.dbg.value(metadata i8* null, metadata !7844, metadata !DIExpression()), !dbg !7846
  call void @llvm.dbg.value(metadata %"struct.scabbard::trace::DeviceAsyncQueue::Lane"* %5, metadata !7835, metadata !DIExpression(DW_OP_plus_uconst, 3720, DW_OP_stack_value)), !dbg !7838
  %64 = getelementptr inbounds %"struct.scabbard::trace::DeviceAsyncQueue::Lane", %"struct.scabbard::trace::DeviceAsyncQueue::Lane"* %5, i64 0, i32 1, i64 58, i32 2, !dbg !7840
  call void @llvm.dbg.value(metadata %"union.scabbard::trace::ThreadId"* %64, metadata !7841, metadata !DIExpression()), !dbg !7846
  call void @llvm.dbg.value(metadata i8* null, metadata !7844, metadata !DIExpression()), !dbg !7846
  call void @llvm.dbg.value(metadata %"struct.scabbard::trace::DeviceAsyncQueue::Lane"* %5, metadata !7835, metadata !DIExpression(DW_OP_plus_uconst, 3784, DW_OP_stack_value)), !dbg !7838
  %65 = getelementptr inbounds %"struct.scabbard::trace::DeviceAsyncQueue::Lane", %"struct.scabbard::trace::DeviceAsyncQueue::Lane"* %5, i64 0, i32 1, i64 59, i32 2, !dbg !7840
  call void @llvm.dbg.value(metadata %"union.scabbard::trace::ThreadId"* %65, metadata !7841, metadata !DIExpression()), !dbg !7846
  call void @llvm.dbg.value(metadata i8* null, metadata !7844, metadata !DIExpression()), !dbg !7846
  call void @llvm.dbg.value(metadata %"struct.scabbard::trace::DeviceAsyncQueue::Lane"* %5, metadata !7835, metadata !DIExpression(DW_OP_plus_uconst, 3848, DW_OP_stack_value)), !dbg !7838
  %66 = getelementptr inbounds %"struct.scabbard::trace::DeviceAsyncQueue::Lane", %"struct.scabbard::trace::DeviceAsyncQueue::Lane"* %5, i64 0, i32 1, i64 60, i32 2, !dbg !7840
  call void @llvm.dbg.value(metadata %"union.scabbard::trace::ThreadId"* %66, metadata !7841, metadata !DIExpression()), !dbg !7846
  call void @llvm.dbg.value(metadata i8* null, metadata !7844, metadata !DIExpression()), !dbg !7846
  call void @llvm.dbg.value(metadata %"struct.scabbard::trace::DeviceAsyncQueue::Lane"* %5, metadata !7835, metadata !DIExpression(DW_OP_plus_uconst, 3912, DW_OP_stack_value)), !dbg !7838
  %67 = getelementptr inbounds %"struct.scabbard::trace::DeviceAsyncQueue::Lane", %"struct.scabbard::trace::DeviceAsyncQueue::Lane"* %5, i64 0, i32 1, i64 61, i32 2, !dbg !7840
  call void @llvm.dbg.value(metadata %"union.scabbard::trace::ThreadId"* %67, metadata !7841, metadata !DIExpression()), !dbg !7846
  call void @llvm.dbg.value(metadata i8* null, metadata !7844, metadata !DIExpression()), !dbg !7846
  call void @llvm.dbg.value(metadata %"struct.scabbard::trace::DeviceAsyncQueue::Lane"* %5, metadata !7835, metadata !DIExpression(DW_OP_plus_uconst, 3976, DW_OP_stack_value)), !dbg !7838
  %68 = getelementptr inbounds %"struct.scabbard::trace::DeviceAsyncQueue::Lane", %"struct.scabbard::trace::DeviceAsyncQueue::Lane"* %5, i64 0, i32 1, i64 62, i32 2, !dbg !7840
  call void @llvm.dbg.value(metadata %"union.scabbard::trace::ThreadId"* %68, metadata !7841, metadata !DIExpression()), !dbg !7846
  call void @llvm.dbg.value(metadata i8* null, metadata !7844, metadata !DIExpression()), !dbg !7846
  call void @llvm.dbg.value(metadata %"struct.scabbard::trace::DeviceAsyncQueue::Lane"* %5, metadata !7835, metadata !DIExpression(DW_OP_plus_uconst, 4040, DW_OP_stack_value)), !dbg !7838
  %69 = getelementptr inbounds %"struct.scabbard::trace::DeviceAsyncQueue::Lane", %"struct.scabbard::trace::DeviceAsyncQueue::Lane"* %5, i64 0, i32 1, i64 63, i32 2, !dbg !7840
  call void @llvm.dbg.value(metadata %"union.scabbard::trace::ThreadId"* %69, metadata !7841, metadata !DIExpression()), !dbg !7846
  call void @llvm.dbg.value(metadata i8* null, metadata !7844, metadata !DIExpression()), !dbg !7846
  %70 = bitcast %"union.scabbard::trace::ThreadId"* %69 to i8*, !dbg !7848
  tail call void @llvm.memset.p0i8.i64(i8* noundef nonnull align 8 dereferenceable(48) %70, i8 0, i64 48, i1 false), !dbg !7849
  %71 = bitcast %"struct.scabbard::trace::DeviceAsyncQueue::Lane"* %5 to i8*, !dbg !7851
  tail call void @llvm.memset.p0i8.i64(i8* noundef nonnull align 8 dereferenceable(18) %71, i8 0, i64 18, i1 false), !dbg !7852
  %72 = bitcast %"union.scabbard::trace::ThreadId"* %6 to i8*, !dbg !7851
  tail call void @llvm.memset.p0i8.i64(i8* noundef nonnull align 8 dereferenceable(58) %72, i8 0, i64 58, i1 false), !dbg !7849
  %73 = bitcast %"union.scabbard::trace::ThreadId"* %7 to i8*, !dbg !7851
  tail call void @llvm.memset.p0i8.i64(i8* noundef nonnull align 8 dereferenceable(58) %73, i8 0, i64 58, i1 false), !dbg !7849
  %74 = bitcast %"union.scabbard::trace::ThreadId"* %8 to i8*, !dbg !7851
  tail call void @llvm.memset.p0i8.i64(i8* noundef nonnull align 8 dereferenceable(58) %74, i8 0, i64 58, i1 false), !dbg !7849
  %75 = bitcast %"union.scabbard::trace::ThreadId"* %9 to i8*, !dbg !7851
  tail call void @llvm.memset.p0i8.i64(i8* noundef nonnull align 8 dereferenceable(58) %75, i8 0, i64 58, i1 false), !dbg !7849
  %76 = bitcast %"union.scabbard::trace::ThreadId"* %10 to i8*, !dbg !7851
  tail call void @llvm.memset.p0i8.i64(i8* noundef nonnull align 8 dereferenceable(58) %76, i8 0, i64 58, i1 false), !dbg !7849
  %77 = bitcast %"union.scabbard::trace::ThreadId"* %11 to i8*, !dbg !7851
  tail call void @llvm.memset.p0i8.i64(i8* noundef nonnull align 8 dereferenceable(58) %77, i8 0, i64 58, i1 false), !dbg !7849
  %78 = bitcast %"union.scabbard::trace::ThreadId"* %12 to i8*, !dbg !7851
  tail call void @llvm.memset.p0i8.i64(i8* noundef nonnull align 8 dereferenceable(58) %78, i8 0, i64 58, i1 false), !dbg !7849
  %79 = bitcast %"union.scabbard::trace::ThreadId"* %13 to i8*, !dbg !7851
  tail call void @llvm.memset.p0i8.i64(i8* noundef nonnull align 8 dereferenceable(58) %79, i8 0, i64 58, i1 false), !dbg !7849
  %80 = bitcast %"union.scabbard::trace::ThreadId"* %14 to i8*, !dbg !7851
  tail call void @llvm.memset.p0i8.i64(i8* noundef nonnull align 8 dereferenceable(58) %80, i8 0, i64 58, i1 false), !dbg !7849
  %81 = bitcast %"union.scabbard::trace::ThreadId"* %15 to i8*, !dbg !7851
  tail call void @llvm.memset.p0i8.i64(i8* noundef nonnull align 8 dereferenceable(58) %81, i8 0, i64 58, i1 false), !dbg !7849
  %82 = bitcast %"union.scabbard::trace::ThreadId"* %16 to i8*, !dbg !7851
  tail call void @llvm.memset.p0i8.i64(i8* noundef nonnull align 8 dereferenceable(58) %82, i8 0, i64 58, i1 false), !dbg !7849
  %83 = bitcast %"union.scabbard::trace::ThreadId"* %17 to i8*, !dbg !7851
  tail call void @llvm.memset.p0i8.i64(i8* noundef nonnull align 8 dereferenceable(58) %83, i8 0, i64 58, i1 false), !dbg !7849
  %84 = bitcast %"union.scabbard::trace::ThreadId"* %18 to i8*, !dbg !7851
  tail call void @llvm.memset.p0i8.i64(i8* noundef nonnull align 8 dereferenceable(58) %84, i8 0, i64 58, i1 false), !dbg !7849
  %85 = bitcast %"union.scabbard::trace::ThreadId"* %19 to i8*, !dbg !7851
  tail call void @llvm.memset.p0i8.i64(i8* noundef nonnull align 8 dereferenceable(58) %85, i8 0, i64 58, i1 false), !dbg !7849
  %86 = bitcast %"union.scabbard::trace::ThreadId"* %20 to i8*, !dbg !7851
  tail call void @llvm.memset.p0i8.i64(i8* noundef nonnull align 8 dereferenceable(58) %86, i8 0, i64 58, i1 false), !dbg !7849
  %87 = bitcast %"union.scabbard::trace::ThreadId"* %21 to i8*, !dbg !7851
  tail call void @llvm.memset.p0i8.i64(i8* noundef nonnull align 8 dereferenceable(58) %87, i8 0, i64 58, i1 false), !dbg !7849
  %88 = bitcast %"union.scabbard::trace::ThreadId"* %22 to i8*, !dbg !7851
  tail call void @llvm.memset.p0i8.i64(i8* noundef nonnull align 8 dereferenceable(58) %88, i8 0, i64 58, i1 false), !dbg !7849
  %89 = bitcast %"union.scabbard::trace::ThreadId"* %23 to i8*, !dbg !7851
  tail call void @llvm.memset.p0i8.i64(i8* noundef nonnull align 8 dereferenceable(58) %89, i8 0, i64 58, i1 false), !dbg !7849
  %90 = bitcast %"union.scabbard::trace::ThreadId"* %24 to i8*, !dbg !7851
  tail call void @llvm.memset.p0i8.i64(i8* noundef nonnull align 8 dereferenceable(58) %90, i8 0, i64 58, i1 false), !dbg !7849
  %91 = bitcast %"union.scabbard::trace::ThreadId"* %25 to i8*, !dbg !7851
  tail call void @llvm.memset.p0i8.i64(i8* noundef nonnull align 8 dereferenceable(58) %91, i8 0, i64 58, i1 false), !dbg !7849
  %92 = bitcast %"union.scabbard::trace::ThreadId"* %26 to i8*, !dbg !7851
  tail call void @llvm.memset.p0i8.i64(i8* noundef nonnull align 8 dereferenceable(58) %92, i8 0, i64 58, i1 false), !dbg !7849
  %93 = bitcast %"union.scabbard::trace::ThreadId"* %27 to i8*, !dbg !7851
  tail call void @llvm.memset.p0i8.i64(i8* noundef nonnull align 8 dereferenceable(58) %93, i8 0, i64 58, i1 false), !dbg !7849
  %94 = bitcast %"union.scabbard::trace::ThreadId"* %28 to i8*, !dbg !7851
  tail call void @llvm.memset.p0i8.i64(i8* noundef nonnull align 8 dereferenceable(58) %94, i8 0, i64 58, i1 false), !dbg !7849
  %95 = bitcast %"union.scabbard::trace::ThreadId"* %29 to i8*, !dbg !7851
  tail call void @llvm.memset.p0i8.i64(i8* noundef nonnull align 8 dereferenceable(58) %95, i8 0, i64 58, i1 false), !dbg !7849
  %96 = bitcast %"union.scabbard::trace::ThreadId"* %30 to i8*, !dbg !7851
  tail call void @llvm.memset.p0i8.i64(i8* noundef nonnull align 8 dereferenceable(58) %96, i8 0, i64 58, i1 false), !dbg !7849
  %97 = bitcast %"union.scabbard::trace::ThreadId"* %31 to i8*, !dbg !7851
  tail call void @llvm.memset.p0i8.i64(i8* noundef nonnull align 8 dereferenceable(58) %97, i8 0, i64 58, i1 false), !dbg !7849
  %98 = bitcast %"union.scabbard::trace::ThreadId"* %32 to i8*, !dbg !7851
  tail call void @llvm.memset.p0i8.i64(i8* noundef nonnull align 8 dereferenceable(58) %98, i8 0, i64 58, i1 false), !dbg !7849
  %99 = bitcast %"union.scabbard::trace::ThreadId"* %33 to i8*, !dbg !7851
  tail call void @llvm.memset.p0i8.i64(i8* noundef nonnull align 8 dereferenceable(58) %99, i8 0, i64 58, i1 false), !dbg !7849
  %100 = bitcast %"union.scabbard::trace::ThreadId"* %34 to i8*, !dbg !7851
  tail call void @llvm.memset.p0i8.i64(i8* noundef nonnull align 8 dereferenceable(58) %100, i8 0, i64 58, i1 false), !dbg !7849
  %101 = bitcast %"union.scabbard::trace::ThreadId"* %35 to i8*, !dbg !7851
  tail call void @llvm.memset.p0i8.i64(i8* noundef nonnull align 8 dereferenceable(58) %101, i8 0, i64 58, i1 false), !dbg !7849
  %102 = bitcast %"union.scabbard::trace::ThreadId"* %36 to i8*, !dbg !7851
  tail call void @llvm.memset.p0i8.i64(i8* noundef nonnull align 8 dereferenceable(58) %102, i8 0, i64 58, i1 false), !dbg !7849
  %103 = bitcast %"union.scabbard::trace::ThreadId"* %37 to i8*, !dbg !7851
  tail call void @llvm.memset.p0i8.i64(i8* noundef nonnull align 8 dereferenceable(58) %103, i8 0, i64 58, i1 false), !dbg !7849
  %104 = bitcast %"union.scabbard::trace::ThreadId"* %38 to i8*, !dbg !7851
  tail call void @llvm.memset.p0i8.i64(i8* noundef nonnull align 8 dereferenceable(58) %104, i8 0, i64 58, i1 false), !dbg !7849
  %105 = bitcast %"union.scabbard::trace::ThreadId"* %39 to i8*, !dbg !7851
  tail call void @llvm.memset.p0i8.i64(i8* noundef nonnull align 8 dereferenceable(58) %105, i8 0, i64 58, i1 false), !dbg !7849
  %106 = bitcast %"union.scabbard::trace::ThreadId"* %40 to i8*, !dbg !7851
  tail call void @llvm.memset.p0i8.i64(i8* noundef nonnull align 8 dereferenceable(58) %106, i8 0, i64 58, i1 false), !dbg !7849
  %107 = bitcast %"union.scabbard::trace::ThreadId"* %41 to i8*, !dbg !7851
  tail call void @llvm.memset.p0i8.i64(i8* noundef nonnull align 8 dereferenceable(58) %107, i8 0, i64 58, i1 false), !dbg !7849
  %108 = bitcast %"union.scabbard::trace::ThreadId"* %42 to i8*, !dbg !7851
  tail call void @llvm.memset.p0i8.i64(i8* noundef nonnull align 8 dereferenceable(58) %108, i8 0, i64 58, i1 false), !dbg !7849
  %109 = bitcast %"union.scabbard::trace::ThreadId"* %43 to i8*, !dbg !7851
  tail call void @llvm.memset.p0i8.i64(i8* noundef nonnull align 8 dereferenceable(58) %109, i8 0, i64 58, i1 false), !dbg !7849
  %110 = bitcast %"union.scabbard::trace::ThreadId"* %44 to i8*, !dbg !7851
  tail call void @llvm.memset.p0i8.i64(i8* noundef nonnull align 8 dereferenceable(58) %110, i8 0, i64 58, i1 false), !dbg !7849
  %111 = bitcast %"union.scabbard::trace::ThreadId"* %45 to i8*, !dbg !7851
  tail call void @llvm.memset.p0i8.i64(i8* noundef nonnull align 8 dereferenceable(58) %111, i8 0, i64 58, i1 false), !dbg !7849
  %112 = bitcast %"union.scabbard::trace::ThreadId"* %46 to i8*, !dbg !7851
  tail call void @llvm.memset.p0i8.i64(i8* noundef nonnull align 8 dereferenceable(58) %112, i8 0, i64 58, i1 false), !dbg !7849
  %113 = bitcast %"union.scabbard::trace::ThreadId"* %47 to i8*, !dbg !7851
  tail call void @llvm.memset.p0i8.i64(i8* noundef nonnull align 8 dereferenceable(58) %113, i8 0, i64 58, i1 false), !dbg !7849
  %114 = bitcast %"union.scabbard::trace::ThreadId"* %48 to i8*, !dbg !7851
  tail call void @llvm.memset.p0i8.i64(i8* noundef nonnull align 8 dereferenceable(58) %114, i8 0, i64 58, i1 false), !dbg !7849
  %115 = bitcast %"union.scabbard::trace::ThreadId"* %49 to i8*, !dbg !7851
  tail call void @llvm.memset.p0i8.i64(i8* noundef nonnull align 8 dereferenceable(58) %115, i8 0, i64 58, i1 false), !dbg !7849
  %116 = bitcast %"union.scabbard::trace::ThreadId"* %50 to i8*, !dbg !7851
  tail call void @llvm.memset.p0i8.i64(i8* noundef nonnull align 8 dereferenceable(58) %116, i8 0, i64 58, i1 false), !dbg !7849
  %117 = bitcast %"union.scabbard::trace::ThreadId"* %51 to i8*, !dbg !7851
  tail call void @llvm.memset.p0i8.i64(i8* noundef nonnull align 8 dereferenceable(58) %117, i8 0, i64 58, i1 false), !dbg !7849
  %118 = bitcast %"union.scabbard::trace::ThreadId"* %52 to i8*, !dbg !7851
  tail call void @llvm.memset.p0i8.i64(i8* noundef nonnull align 8 dereferenceable(58) %118, i8 0, i64 58, i1 false), !dbg !7849
  %119 = bitcast %"union.scabbard::trace::ThreadId"* %53 to i8*, !dbg !7851
  tail call void @llvm.memset.p0i8.i64(i8* noundef nonnull align 8 dereferenceable(58) %119, i8 0, i64 58, i1 false), !dbg !7849
  %120 = bitcast %"union.scabbard::trace::ThreadId"* %54 to i8*, !dbg !7851
  tail call void @llvm.memset.p0i8.i64(i8* noundef nonnull align 8 dereferenceable(58) %120, i8 0, i64 58, i1 false), !dbg !7849
  %121 = bitcast %"union.scabbard::trace::ThreadId"* %55 to i8*, !dbg !7851
  tail call void @llvm.memset.p0i8.i64(i8* noundef nonnull align 8 dereferenceable(58) %121, i8 0, i64 58, i1 false), !dbg !7849
  %122 = bitcast %"union.scabbard::trace::ThreadId"* %56 to i8*, !dbg !7851
  tail call void @llvm.memset.p0i8.i64(i8* noundef nonnull align 8 dereferenceable(58) %122, i8 0, i64 58, i1 false), !dbg !7849
  %123 = bitcast %"union.scabbard::trace::ThreadId"* %57 to i8*, !dbg !7851
  tail call void @llvm.memset.p0i8.i64(i8* noundef nonnull align 8 dereferenceable(58) %123, i8 0, i64 58, i1 false), !dbg !7849
  %124 = bitcast %"union.scabbard::trace::ThreadId"* %58 to i8*, !dbg !7851
  tail call void @llvm.memset.p0i8.i64(i8* noundef nonnull align 8 dereferenceable(58) %124, i8 0, i64 58, i1 false), !dbg !7849
  %125 = bitcast %"union.scabbard::trace::ThreadId"* %59 to i8*, !dbg !7851
  tail call void @llvm.memset.p0i8.i64(i8* noundef nonnull align 8 dereferenceable(58) %125, i8 0, i64 58, i1 false), !dbg !7849
  %126 = bitcast %"union.scabbard::trace::ThreadId"* %60 to i8*, !dbg !7851
  tail call void @llvm.memset.p0i8.i64(i8* noundef nonnull align 8 dereferenceable(58) %126, i8 0, i64 58, i1 false), !dbg !7849
  %127 = bitcast %"union.scabbard::trace::ThreadId"* %61 to i8*, !dbg !7851
  tail call void @llvm.memset.p0i8.i64(i8* noundef nonnull align 8 dereferenceable(58) %127, i8 0, i64 58, i1 false), !dbg !7849
  %128 = bitcast %"union.scabbard::trace::ThreadId"* %62 to i8*, !dbg !7851
  tail call void @llvm.memset.p0i8.i64(i8* noundef nonnull align 8 dereferenceable(58) %128, i8 0, i64 58, i1 false), !dbg !7849
  %129 = bitcast %"union.scabbard::trace::ThreadId"* %63 to i8*, !dbg !7851
  tail call void @llvm.memset.p0i8.i64(i8* noundef nonnull align 8 dereferenceable(58) %129, i8 0, i64 58, i1 false), !dbg !7849
  %130 = bitcast %"union.scabbard::trace::ThreadId"* %64 to i8*, !dbg !7851
  tail call void @llvm.memset.p0i8.i64(i8* noundef nonnull align 8 dereferenceable(58) %130, i8 0, i64 58, i1 false), !dbg !7849
  %131 = bitcast %"union.scabbard::trace::ThreadId"* %65 to i8*, !dbg !7851
  tail call void @llvm.memset.p0i8.i64(i8* noundef nonnull align 8 dereferenceable(58) %131, i8 0, i64 58, i1 false), !dbg !7849
  %132 = bitcast %"union.scabbard::trace::ThreadId"* %66 to i8*, !dbg !7851
  tail call void @llvm.memset.p0i8.i64(i8* noundef nonnull align 8 dereferenceable(58) %132, i8 0, i64 58, i1 false), !dbg !7849
  %133 = bitcast %"union.scabbard::trace::ThreadId"* %67 to i8*, !dbg !7851
  tail call void @llvm.memset.p0i8.i64(i8* noundef nonnull align 8 dereferenceable(58) %133, i8 0, i64 58, i1 false), !dbg !7849
  %134 = bitcast %"union.scabbard::trace::ThreadId"* %68 to i8*, !dbg !7851
  tail call void @llvm.memset.p0i8.i64(i8* noundef nonnull align 8 dereferenceable(58) %134, i8 0, i64 58, i1 false), !dbg !7849
  %135 = getelementptr inbounds %"struct.scabbard::trace::DeviceAsyncQueue::Lane", %"struct.scabbard::trace::DeviceAsyncQueue::Lane"* %5, i64 1, !dbg !7828
  %136 = icmp eq %"struct.scabbard::trace::DeviceAsyncQueue::Lane"* %135, %3, !dbg !7828
  br i1 %136, label %137, label %4, !dbg !7828

137:                                              ; preds = %4
  ret void, !dbg !7853
}

declare !dbg !7854 dso_local i32 @hipMemcpy(i8* noundef, i8* noundef, i64 noundef, i32 noundef) local_unnamed_addr #1

; Function Attrs: argmemonly nocallback nofree nounwind willreturn writeonly
declare void @llvm.memset.p0i8.i64(i8* nocapture writeonly, i8, i64, i1 immarg) #14

declare dso_local void @_ZNSt7__cxx1112basic_stringIcSt11char_traitsIcESaIcEE7reserveEm(%"class.std::__cxx11::basic_string"* noundef nonnull align 8 dereferenceable(32), i64 noundef) local_unnamed_addr #1

; Function Attrs: mustprogress nofree norecurse nosync nounwind readnone willreturn uwtable
define dso_local void @scabbard.trace.scabbard_close() local_unnamed_addr #15 !dbg !7858 {
  ret void, !dbg !7859
}

; Function Attrs: mustprogress uwtable
define dso_local noundef i64 @"scabbard.trace.metadata_register$src"(i8* noundef %0) local_unnamed_addr #16 !dbg !7860 {
  call void @llvm.dbg.value(metadata i8* %0, metadata !7864, metadata !DIExpression()), !dbg !7865
  %2 = tail call noundef i64 @_ZN8scabbard5trace10AsyncQueue12register_srcEPKc(%"class.scabbard::trace::AsyncQueue"* noundef nonnull align 8 dereferenceable(263408) @_ZN8scabbard5trace12TRACE_LOGGERE, i8* noundef %0), !dbg !7866
  ret i64 %2, !dbg !7867
}

; Function Attrs: uwtable
define dso_local void @"scabbard.trace.host.trace_append$mem"(i16 noundef zeroext %0, i8* noundef %1, i64* nocapture noundef readonly %2, i32 noundef %3, i32 noundef %4) local_unnamed_addr #0 personality i32 (...)* @__gxx_personality_v0 !dbg !7868 {
  %6 = alloca %"struct.scabbard::trace::TraceData", align 8
  call void @llvm.dbg.value(metadata i16 %0, metadata !7875, metadata !DIExpression()), !dbg !7880
  call void @llvm.dbg.value(metadata i8* %1, metadata !7876, metadata !DIExpression()), !dbg !7880
  call void @llvm.dbg.value(metadata i64* %2, metadata !7877, metadata !DIExpression()), !dbg !7880
  call void @llvm.dbg.value(metadata i32 %3, metadata !7878, metadata !DIExpression()), !dbg !7880
  call void @llvm.dbg.value(metadata i32 %4, metadata !7879, metadata !DIExpression()), !dbg !7880
  %7 = load i64, i64* %2, align 8, !dbg !7881, !tbaa !7090
  call void @llvm.dbg.value(metadata %"struct.scabbard::trace::TraceData"* %6, metadata !7882, metadata !DIExpression()), !dbg !7889
  call void @llvm.dbg.value(metadata i16 %0, metadata !7885, metadata !DIExpression()), !dbg !7889
  call void @llvm.dbg.value(metadata i8* %1, metadata !7886, metadata !DIExpression()), !dbg !7889
  call void @llvm.dbg.value(metadata %"struct.scabbard::LocationMetadata"* undef, metadata !7887, metadata !DIExpression()), !dbg !7889
  call void @llvm.dbg.value(metadata i64 0, metadata !7888, metadata !DIExpression()), !dbg !7889
  %8 = getelementptr inbounds %"struct.scabbard::trace::TraceData", %"struct.scabbard::trace::TraceData"* %6, i64 0, i32 0, !dbg !7891
  %9 = tail call i64 @_ZNSt6chrono3_V212system_clock3nowEv() #24, !dbg !7892
  store i64 %9, i64* %8, align 8, !dbg !7891, !tbaa !7893
  %10 = getelementptr inbounds %"struct.scabbard::trace::TraceData", %"struct.scabbard::trace::TraceData"* %6, i64 0, i32 1, !dbg !7897
  store i16 %0, i16* %10, align 8, !dbg !7897, !tbaa !7898
  call void @llvm.dbg.value(metadata %"struct.scabbard::trace::TraceData"* %6, metadata !7899, metadata !DIExpression(DW_OP_plus_uconst, 16, DW_OP_stack_value)), !dbg !7902
  %11 = getelementptr inbounds %"struct.scabbard::trace::TraceData", %"struct.scabbard::trace::TraceData"* %6, i64 0, i32 2, i32 1, i64 0, !dbg !7904
  %12 = bitcast i8* %11 to i64*, !dbg !7904
  store i64 0, i64* %12, align 8, !dbg !7904
  %13 = tail call i64 @pthread_self() #28, !dbg !7906
  %14 = getelementptr inbounds %"struct.scabbard::trace::TraceData", %"struct.scabbard::trace::TraceData"* %6, i64 0, i32 2, i32 0, i32 0, !dbg !7912
  store i64 %13, i64* %14, align 8, !dbg !7912, !tbaa.struct !7913
  %15 = getelementptr inbounds %"struct.scabbard::trace::TraceData", %"struct.scabbard::trace::TraceData"* %6, i64 0, i32 3, !dbg !7914
  store i8* %1, i8** %15, align 8, !dbg !7914, !tbaa !7915
  %16 = getelementptr inbounds %"struct.scabbard::trace::TraceData", %"struct.scabbard::trace::TraceData"* %6, i64 0, i32 4, i32 0, !dbg !7916
  store i64 %7, i64* %16, align 8, !dbg !7916, !tbaa.struct !7917
  %17 = getelementptr inbounds %"struct.scabbard::trace::TraceData", %"struct.scabbard::trace::TraceData"* %6, i64 0, i32 4, i32 1, !dbg !7916
  store i32 %3, i32* %17, align 8, !dbg !7916, !tbaa.struct !7918
  %18 = getelementptr inbounds %"struct.scabbard::trace::TraceData", %"struct.scabbard::trace::TraceData"* %6, i64 0, i32 4, i32 2, !dbg !7916
  store i32 %4, i32* %18, align 4, !dbg !7916, !tbaa.struct !7919
  %19 = getelementptr inbounds %"struct.scabbard::trace::TraceData", %"struct.scabbard::trace::TraceData"* %6, i64 0, i32 5, !dbg !7920
  store i64 0, i64* %19, align 8, !dbg !7920, !tbaa !7921
  call void @_ZN8scabbard5trace10AsyncQueue6appendENS0_9TraceDataE(%"class.scabbard::trace::AsyncQueue"* noundef nonnull align 8 dereferenceable(263408) @_ZN8scabbard5trace12TRACE_LOGGERE, %"struct.scabbard::trace::TraceData"* noundef nonnull %6), !dbg !7922
  ret void, !dbg !7923
}

; Function Attrs: mustprogress nofree nosync nounwind readnone willreturn
declare !dbg !7924 dso_local i64 @pthread_self() local_unnamed_addr #17

; Function Attrs: uwtable
define dso_local void @"scabbard.trace.host.trace_append$mem$cond"(i16 noundef zeroext %0, i8* noundef %1, i64* nocapture noundef readonly %2, i32 noundef %3, i32 noundef %4) local_unnamed_addr #0 personality i32 (...)* @__gxx_personality_v0 !dbg !7927 {
  %6 = alloca %"struct.scabbard::trace::TraceData", align 8
  call void @llvm.dbg.value(metadata i16 %0, metadata !7929, metadata !DIExpression()), !dbg !7947
  call void @llvm.dbg.value(metadata i8* %1, metadata !7930, metadata !DIExpression()), !dbg !7947
  call void @llvm.dbg.value(metadata i64* %2, metadata !7931, metadata !DIExpression()), !dbg !7947
  call void @llvm.dbg.value(metadata i32 %3, metadata !7932, metadata !DIExpression()), !dbg !7947
  call void @llvm.dbg.value(metadata i32 %4, metadata !7933, metadata !DIExpression()), !dbg !7947
  %7 = tail call i32 @hipPointerGetAttributes(%struct.hipPointerAttribute_t* noundef undef, i8* noundef %1), !dbg !7948
  call void @llvm.dbg.value(metadata i32 %7, metadata !7945, metadata !DIExpression()), !dbg !7947
  %8 = icmp eq i32 %7, 0, !dbg !7949
  br i1 %8, label %9, label %25, !dbg !7951

9:                                                ; preds = %5
  call void @llvm.dbg.value(metadata i16* undef, metadata !7952, metadata !DIExpression()), !dbg !7959
  call void @llvm.dbg.value(metadata i16 2048, metadata !7958, metadata !DIExpression()), !dbg !7959
  %10 = or i16 %0, 2048, !dbg !7964
  call void @llvm.dbg.value(metadata i16 %10, metadata !7929, metadata !DIExpression()), !dbg !7947
  %11 = bitcast %"struct.scabbard::trace::TraceData"* %6 to i8*, !dbg !7965
  call void @llvm.lifetime.start.p0i8(i64 64, i8* nonnull %11), !dbg !7965
  call void @llvm.dbg.value(metadata i16 %10, metadata !7875, metadata !DIExpression()), !dbg !7965
  call void @llvm.dbg.value(metadata i8* %1, metadata !7876, metadata !DIExpression()), !dbg !7965
  call void @llvm.dbg.value(metadata i64* %2, metadata !7877, metadata !DIExpression()), !dbg !7965
  call void @llvm.dbg.value(metadata i32 %3, metadata !7878, metadata !DIExpression()), !dbg !7965
  call void @llvm.dbg.value(metadata i32 %4, metadata !7879, metadata !DIExpression()), !dbg !7965
  %12 = load i64, i64* %2, align 8, !dbg !7967, !tbaa !7090
  call void @llvm.dbg.value(metadata %"struct.scabbard::trace::TraceData"* %6, metadata !7882, metadata !DIExpression()), !dbg !7968
  call void @llvm.dbg.value(metadata i16 %10, metadata !7885, metadata !DIExpression()), !dbg !7968
  call void @llvm.dbg.value(metadata i8* %1, metadata !7886, metadata !DIExpression()), !dbg !7968
  call void @llvm.dbg.value(metadata %"struct.scabbard::LocationMetadata"* undef, metadata !7887, metadata !DIExpression()), !dbg !7968
  call void @llvm.dbg.value(metadata i64 0, metadata !7888, metadata !DIExpression()), !dbg !7968
  %13 = getelementptr inbounds %"struct.scabbard::trace::TraceData", %"struct.scabbard::trace::TraceData"* %6, i64 0, i32 0, !dbg !7970
  %14 = tail call i64 @_ZNSt6chrono3_V212system_clock3nowEv() #24, !dbg !7971
  store i64 %14, i64* %13, align 8, !dbg !7970, !tbaa !7893
  %15 = getelementptr inbounds %"struct.scabbard::trace::TraceData", %"struct.scabbard::trace::TraceData"* %6, i64 0, i32 1, !dbg !7972
  store i16 %10, i16* %15, align 8, !dbg !7972, !tbaa !7898
  call void @llvm.dbg.value(metadata %"struct.scabbard::trace::TraceData"* %6, metadata !7899, metadata !DIExpression(DW_OP_plus_uconst, 16, DW_OP_stack_value)), !dbg !7973
  %16 = getelementptr inbounds %"struct.scabbard::trace::TraceData", %"struct.scabbard::trace::TraceData"* %6, i64 0, i32 2, i32 1, i64 0, !dbg !7975
  %17 = bitcast i8* %16 to i64*, !dbg !7975
  store i64 0, i64* %17, align 8, !dbg !7975
  %18 = tail call i64 @pthread_self() #28, !dbg !7976
  %19 = getelementptr inbounds %"struct.scabbard::trace::TraceData", %"struct.scabbard::trace::TraceData"* %6, i64 0, i32 2, i32 0, i32 0, !dbg !7978
  store i64 %18, i64* %19, align 8, !dbg !7978, !tbaa.struct !7913
  %20 = getelementptr inbounds %"struct.scabbard::trace::TraceData", %"struct.scabbard::trace::TraceData"* %6, i64 0, i32 3, !dbg !7979
  store i8* %1, i8** %20, align 8, !dbg !7979, !tbaa !7915
  %21 = getelementptr inbounds %"struct.scabbard::trace::TraceData", %"struct.scabbard::trace::TraceData"* %6, i64 0, i32 4, i32 0, !dbg !7980
  store i64 %12, i64* %21, align 8, !dbg !7980, !tbaa.struct !7917
  %22 = getelementptr inbounds %"struct.scabbard::trace::TraceData", %"struct.scabbard::trace::TraceData"* %6, i64 0, i32 4, i32 1, !dbg !7980
  store i32 %3, i32* %22, align 8, !dbg !7980, !tbaa.struct !7918
  %23 = getelementptr inbounds %"struct.scabbard::trace::TraceData", %"struct.scabbard::trace::TraceData"* %6, i64 0, i32 4, i32 2, !dbg !7980
  store i32 %4, i32* %23, align 4, !dbg !7980, !tbaa.struct !7919
  %24 = getelementptr inbounds %"struct.scabbard::trace::TraceData", %"struct.scabbard::trace::TraceData"* %6, i64 0, i32 5, !dbg !7981
  store i64 0, i64* %24, align 8, !dbg !7981, !tbaa !7921
  call void @_ZN8scabbard5trace10AsyncQueue6appendENS0_9TraceDataE(%"class.scabbard::trace::AsyncQueue"* noundef nonnull align 8 dereferenceable(263408) @_ZN8scabbard5trace12TRACE_LOGGERE, %"struct.scabbard::trace::TraceData"* noundef nonnull %6), !dbg !7982
  call void @llvm.lifetime.end.p0i8(i64 64, i8* nonnull %11), !dbg !7983
  br label %54, !dbg !7984

25:                                               ; preds = %5
  call void @llvm.dbg.value(metadata %"class.std::basic_ostream"* @_ZSt4cerr, metadata !7471, metadata !DIExpression()), !dbg !7985
  call void @llvm.dbg.value(metadata i8* getelementptr inbounds ([109 x i8], [109 x i8]* @.str.12, i64 0, i64 0), metadata !7478, metadata !DIExpression()), !dbg !7985
  %26 = tail call noundef nonnull align 8 dereferenceable(8) %"class.std::basic_ostream"* @_ZSt16__ostream_insertIcSt11char_traitsIcEERSt13basic_ostreamIT_T0_ES6_PKS3_l(%"class.std::basic_ostream"* noundef nonnull align 8 dereferenceable(8) @_ZSt4cerr, i8* noundef nonnull getelementptr inbounds ([109 x i8], [109 x i8]* @.str.12, i64 0, i64 0), i64 noundef 108), !dbg !7988
  call void @llvm.dbg.value(metadata %"class.std::basic_ostream"* @_ZSt4cerr, metadata !7492, metadata !DIExpression()), !dbg !7989
  call void @llvm.dbg.value(metadata %"class.std::basic_ostream"* (%"class.std::basic_ostream"*)* @_ZSt4endlIcSt11char_traitsIcEERSt13basic_ostreamIT_T0_ES6_, metadata !7504, metadata !DIExpression()), !dbg !7989
  call void @llvm.dbg.value(metadata %"class.std::basic_ostream"* @_ZSt4cerr, metadata !7991, metadata !DIExpression()), !dbg !7996
  %27 = load i8*, i8** bitcast (%"class.std::basic_ostream"* @_ZSt4cerr to i8**), align 8, !dbg !7998, !tbaa !7999
  %28 = getelementptr i8, i8* %27, i64 -24, !dbg !7998
  %29 = bitcast i8* %28 to i64*, !dbg !7998
  %30 = load i64, i64* %29, align 8, !dbg !7998
  %31 = getelementptr inbounds i8, i8* bitcast (%"class.std::basic_ostream"* @_ZSt4cerr to i8*), i64 %30, !dbg !7998
  call void @llvm.dbg.value(metadata i8* %31, metadata !8001, metadata !DIExpression()), !dbg !8013
  call void @llvm.dbg.value(metadata i8 10, metadata !8011, metadata !DIExpression()), !dbg !8013
  %32 = getelementptr inbounds i8, i8* %31, i64 240, !dbg !8015
  %33 = bitcast i8* %32 to %"class.std::ctype"**, !dbg !8015
  %34 = load %"class.std::ctype"*, %"class.std::ctype"** %33, align 8, !dbg !8015, !tbaa !8016
  call void @llvm.dbg.value(metadata %"class.std::ctype"* %34, metadata !8024, metadata !DIExpression()), !dbg !8034
  %35 = icmp eq %"class.std::ctype"* %34, null, !dbg !8036
  br i1 %35, label %36, label %37, !dbg !8038

36:                                               ; preds = %25
  tail call void @_ZSt16__throw_bad_castv() #25, !dbg !8039
  unreachable, !dbg !8039

37:                                               ; preds = %25
  call void @llvm.dbg.value(metadata %"class.std::ctype"* %34, metadata !8040, metadata !DIExpression()), !dbg !8049
  call void @llvm.dbg.value(metadata i8 10, metadata !8048, metadata !DIExpression()), !dbg !8049
  %38 = getelementptr inbounds %"class.std::ctype", %"class.std::ctype"* %34, i64 0, i32 8, !dbg !8051
  %39 = load i8, i8* %38, align 8, !dbg !8051, !tbaa !8053
  %40 = icmp eq i8 %39, 0, !dbg !8051
  br i1 %40, label %44, label %41, !dbg !8056

41:                                               ; preds = %37
  %42 = getelementptr inbounds %"class.std::ctype", %"class.std::ctype"* %34, i64 0, i32 9, i64 10, !dbg !8057
  %43 = load i8, i8* %42, align 1, !dbg !8057, !tbaa !7116
  br label %50, !dbg !8058

44:                                               ; preds = %37
  tail call void @_ZNKSt5ctypeIcE13_M_widen_initEv(%"class.std::ctype"* noundef nonnull align 8 dereferenceable(570) %34), !dbg !8059
  %45 = bitcast %"class.std::ctype"* %34 to i8 (%"class.std::ctype"*, i8)***, !dbg !8060
  %46 = load i8 (%"class.std::ctype"*, i8)**, i8 (%"class.std::ctype"*, i8)*** %45, align 8, !dbg !8060, !tbaa !7999
  %47 = getelementptr inbounds i8 (%"class.std::ctype"*, i8)*, i8 (%"class.std::ctype"*, i8)** %46, i64 6, !dbg !8060
  %48 = load i8 (%"class.std::ctype"*, i8)*, i8 (%"class.std::ctype"*, i8)** %47, align 8, !dbg !8060
  %49 = tail call noundef signext i8 %48(%"class.std::ctype"* noundef nonnull align 8 dereferenceable(570) %34, i8 noundef signext 10), !dbg !8060
  br label %50, !dbg !8061

50:                                               ; preds = %44, %41
  %51 = phi i8 [ %43, %41 ], [ %49, %44 ], !dbg !8049
  %52 = tail call noundef nonnull align 8 dereferenceable(8) %"class.std::basic_ostream"* @_ZNSo3putEc(%"class.std::basic_ostream"* noundef nonnull align 8 dereferenceable(8) @_ZSt4cerr, i8 noundef signext %51), !dbg !8062
  call void @llvm.dbg.value(metadata %"class.std::basic_ostream"* %52, metadata !8063, metadata !DIExpression()), !dbg !8066
  %53 = tail call noundef nonnull align 8 dereferenceable(8) %"class.std::basic_ostream"* @_ZNSo5flushEv(%"class.std::basic_ostream"* noundef nonnull align 8 dereferenceable(8) %52), !dbg !8068
  br label %54

54:                                               ; preds = %50, %9
  ret void, !dbg !8069
}

declare !dbg !8070 dso_local i32 @hipPointerGetAttributes(%struct.hipPointerAttribute_t* noundef, i8* noundef) local_unnamed_addr #1

; Function Attrs: noreturn
declare dso_local void @_ZSt16__throw_bad_castv() local_unnamed_addr #10

declare dso_local void @_ZNKSt5ctypeIcE13_M_widen_initEv(%"class.std::ctype"* noundef nonnull align 8 dereferenceable(570)) local_unnamed_addr #1

declare dso_local noundef nonnull align 8 dereferenceable(8) %"class.std::basic_ostream"* @_ZNSo3putEc(%"class.std::basic_ostream"* noundef nonnull align 8 dereferenceable(8), i8 noundef signext) local_unnamed_addr #1

declare dso_local noundef nonnull align 8 dereferenceable(8) %"class.std::basic_ostream"* @_ZNSo5flushEv(%"class.std::basic_ostream"* noundef nonnull align 8 dereferenceable(8)) local_unnamed_addr #1

; Function Attrs: uwtable
define dso_local void @"scabbard.trace.host.trace_append$alloc"(i16 noundef zeroext %0, i8* noundef %1, i64* nocapture noundef readonly %2, i32 noundef %3, i32 noundef %4, i64 noundef %5) local_unnamed_addr #0 personality i32 (...)* @__gxx_personality_v0 !dbg !8073 {
  %7 = alloca %"struct.scabbard::trace::TraceData", align 8
  call void @llvm.dbg.value(metadata i16 %0, metadata !8077, metadata !DIExpression()), !dbg !8083
  call void @llvm.dbg.value(metadata i8* %1, metadata !8078, metadata !DIExpression()), !dbg !8083
  call void @llvm.dbg.value(metadata i64* %2, metadata !8079, metadata !DIExpression()), !dbg !8083
  call void @llvm.dbg.value(metadata i32 %3, metadata !8080, metadata !DIExpression()), !dbg !8083
  call void @llvm.dbg.value(metadata i32 %4, metadata !8081, metadata !DIExpression()), !dbg !8083
  call void @llvm.dbg.value(metadata i64 %5, metadata !8082, metadata !DIExpression()), !dbg !8083
  %8 = load i64, i64* %2, align 8, !dbg !8084, !tbaa !7090
  call void @llvm.dbg.value(metadata %"struct.scabbard::trace::TraceData"* %7, metadata !7882, metadata !DIExpression()), !dbg !8085
  call void @llvm.dbg.value(metadata i16 %0, metadata !7885, metadata !DIExpression()), !dbg !8085
  call void @llvm.dbg.value(metadata i8* %1, metadata !7886, metadata !DIExpression()), !dbg !8085
  call void @llvm.dbg.value(metadata %"struct.scabbard::LocationMetadata"* undef, metadata !7887, metadata !DIExpression()), !dbg !8085
  call void @llvm.dbg.value(metadata i64 %5, metadata !7888, metadata !DIExpression()), !dbg !8085
  %9 = getelementptr inbounds %"struct.scabbard::trace::TraceData", %"struct.scabbard::trace::TraceData"* %7, i64 0, i32 0, !dbg !8087
  %10 = tail call i64 @_ZNSt6chrono3_V212system_clock3nowEv() #24, !dbg !8088
  store i64 %10, i64* %9, align 8, !dbg !8087, !tbaa !7893
  %11 = getelementptr inbounds %"struct.scabbard::trace::TraceData", %"struct.scabbard::trace::TraceData"* %7, i64 0, i32 1, !dbg !8089
  store i16 %0, i16* %11, align 8, !dbg !8089, !tbaa !7898
  call void @llvm.dbg.value(metadata %"struct.scabbard::trace::TraceData"* %7, metadata !7899, metadata !DIExpression(DW_OP_plus_uconst, 16, DW_OP_stack_value)), !dbg !8090
  %12 = getelementptr inbounds %"struct.scabbard::trace::TraceData", %"struct.scabbard::trace::TraceData"* %7, i64 0, i32 2, i32 1, i64 0, !dbg !8092
  %13 = bitcast i8* %12 to i64*, !dbg !8092
  store i64 0, i64* %13, align 8, !dbg !8092
  %14 = tail call i64 @pthread_self() #28, !dbg !8093
  %15 = getelementptr inbounds %"struct.scabbard::trace::TraceData", %"struct.scabbard::trace::TraceData"* %7, i64 0, i32 2, i32 0, i32 0, !dbg !8095
  store i64 %14, i64* %15, align 8, !dbg !8095, !tbaa.struct !7913
  %16 = getelementptr inbounds %"struct.scabbard::trace::TraceData", %"struct.scabbard::trace::TraceData"* %7, i64 0, i32 3, !dbg !8096
  store i8* %1, i8** %16, align 8, !dbg !8096, !tbaa !7915
  %17 = getelementptr inbounds %"struct.scabbard::trace::TraceData", %"struct.scabbard::trace::TraceData"* %7, i64 0, i32 4, i32 0, !dbg !8097
  store i64 %8, i64* %17, align 8, !dbg !8097, !tbaa.struct !7917
  %18 = getelementptr inbounds %"struct.scabbard::trace::TraceData", %"struct.scabbard::trace::TraceData"* %7, i64 0, i32 4, i32 1, !dbg !8097
  store i32 %3, i32* %18, align 8, !dbg !8097, !tbaa.struct !7918
  %19 = getelementptr inbounds %"struct.scabbard::trace::TraceData", %"struct.scabbard::trace::TraceData"* %7, i64 0, i32 4, i32 2, !dbg !8097
  store i32 %4, i32* %19, align 4, !dbg !8097, !tbaa.struct !7919
  %20 = getelementptr inbounds %"struct.scabbard::trace::TraceData", %"struct.scabbard::trace::TraceData"* %7, i64 0, i32 5, !dbg !8098
  store i64 %5, i64* %20, align 8, !dbg !8098, !tbaa !7921
  call void @_ZN8scabbard5trace10AsyncQueue6appendENS0_9TraceDataE(%"class.scabbard::trace::AsyncQueue"* noundef nonnull align 8 dereferenceable(263408) @_ZN8scabbard5trace12TRACE_LOGGERE, %"struct.scabbard::trace::TraceData"* noundef nonnull %7), !dbg !8099
  ret void, !dbg !8100
}

; Function Attrs: uwtable
define internal void @_GLOBAL__sub_I_AsyncQueue.cpp() #0 section ".text.startup" !dbg !8101 {
  tail call void @_ZNSt8ios_base4InitC1Ev(%"class.std::ios_base::Init"* noundef nonnull align 1 dereferenceable(1) @_ZStL8__ioinit.2), !dbg !8103
  %1 = tail call i32 @__cxa_atexit(void (i8*)* bitcast (void (%"class.std::ios_base::Init"*)* @_ZNSt8ios_base4InitD1Ev to void (i8*)*), i8* getelementptr inbounds (%"class.std::ios_base::Init", %"class.std::ios_base::Init"* @_ZStL8__ioinit.2, i64 0, i32 0), i8* nonnull @__dso_handle) #24, !dbg !8107
  ret void
}

; Function Attrs: uwtable
define dso_local void @_ZN8scabbard5trace10AsyncQueueC2Ev(%"class.scabbard::trace::AsyncQueue"* noundef nonnull align 8 dereferenceable(263408) %0) unnamed_addr #0 align 2 personality i8* bitcast (i32 (...)* @__gxx_personality_v0 to i8*) !dbg !8108 {
  call void @llvm.dbg.value(metadata %"class.scabbard::trace::AsyncQueue"* %0, metadata !8110, metadata !DIExpression()), !dbg !8111
  %2 = getelementptr inbounds %"class.scabbard::trace::AsyncQueue", %"class.scabbard::trace::AsyncQueue"* %0, i64 0, i32 0, !dbg !8112
  store %"struct.scabbard::trace::DeviceAsyncQueue"* null, %"struct.scabbard::trace::DeviceAsyncQueue"** %2, align 8, !dbg !8112, !tbaa !8114
  %3 = getelementptr inbounds %"class.scabbard::trace::AsyncQueue", %"class.scabbard::trace::AsyncQueue"* %0, i64 0, i32 2, !dbg !8136
  tail call void @_ZN8scabbard5trace16DeviceAsyncQueueC2Ev(%"struct.scabbard::trace::DeviceAsyncQueue"* noundef nonnull align 8 dereferenceable(262656) %3), !dbg !8136
  %4 = getelementptr inbounds %"class.scabbard::trace::AsyncQueue", %"class.scabbard::trace::AsyncQueue"* %0, i64 0, i32 3, !dbg !8136
  call void @llvm.dbg.value(metadata %"class.std::queue"* %4, metadata !8138, metadata !DIExpression()), !dbg !8146
  call void @llvm.dbg.value(metadata %"class.std::queue"* %4, metadata !8148, metadata !DIExpression()), !dbg !8152
  %5 = getelementptr inbounds %"class.std::queue", %"class.std::queue"* %4, i64 0, i32 0, i32 0, !dbg !8154
  call void @llvm.dbg.value(metadata %"class.std::_Deque_base"* %5, metadata !8155, metadata !DIExpression()), !dbg !8159
  call void @llvm.dbg.value(metadata %"class.std::_Deque_base"* %5, metadata !8161, metadata !DIExpression()), !dbg !8165
  call void @llvm.dbg.value(metadata %"class.std::_Deque_base"* %5, metadata !8167, metadata !DIExpression()), !dbg !8171
  %6 = bitcast %"class.std::queue"* %4 to i8*, !dbg !8173
  tail call void @llvm.memset.p0i8.i64(i8* noundef nonnull align 8 dereferenceable(80) %6, i8 0, i64 80, i1 false), !dbg !8175
  tail call void @_ZNSt11_Deque_baseIN8scabbard5trace9TraceDataESaIS2_EE17_M_initialize_mapEm(%"class.std::_Deque_base"* noundef nonnull align 8 dereferenceable(80) %5, i64 noundef 0), !dbg !8173
  %7 = getelementptr inbounds %"class.scabbard::trace::AsyncQueue", %"class.scabbard::trace::AsyncQueue"* %0, i64 0, i32 4, !dbg !8136
  call void @llvm.dbg.value(metadata %"class.std::mutex"* %7, metadata !8176, metadata !DIExpression()), !dbg !8180
  call void @llvm.dbg.value(metadata %"class.std::mutex"* %7, metadata !8182, metadata !DIExpression()), !dbg !8186
  call void @llvm.dbg.value(metadata %"class.scabbard::trace::AsyncQueue"* %0, metadata !8188, metadata !DIExpression(DW_OP_plus_uconst, 263320, DW_OP_stack_value)), !dbg !8199
  call void @llvm.dbg.value(metadata %"class.std::thread::id"* undef, metadata !8197, metadata !DIExpression()), !dbg !8199
  %8 = getelementptr inbounds %"class.scabbard::trace::AsyncQueue", %"class.scabbard::trace::AsyncQueue"* %0, i64 0, i32 8, i32 0, !dbg !8201
  %9 = bitcast %"class.std::mutex"* %7 to i8*, !dbg !8201
  tail call void @llvm.memset.p0i8.i64(i8* noundef nonnull align 8 dereferenceable(57) %9, i8 0, i64 57, i1 false), !dbg !8202
  store i64 2000000, i64* %8, align 8, !dbg !8201, !tbaa !8203
  %10 = getelementptr inbounds %"class.scabbard::trace::AsyncQueue", %"class.scabbard::trace::AsyncQueue"* %0, i64 0, i32 9, !dbg !8136
  call void @llvm.dbg.value(metadata %"class.scabbard::trace::MetadataStore"* %10, metadata !8204, metadata !DIExpression()), !dbg !8211
  call void @llvm.dbg.value(metadata %"class.scabbard::trace::MetadataStore"* %10, metadata !8213, metadata !DIExpression()), !dbg !8217
  call void @llvm.dbg.value(metadata %"class.scabbard::trace::MetadataStore"* %10, metadata !8219, metadata !DIExpression()), !dbg !8223
  call void @llvm.dbg.value(metadata %"class.scabbard::trace::MetadataStore"* %10, metadata !8225, metadata !DIExpression()), !dbg !8229
  call void @llvm.dbg.value(metadata %"class.scabbard::trace::MetadataStore"* %10, metadata !8231, metadata !DIExpression()), !dbg !8235
  %11 = bitcast %"class.scabbard::trace::MetadataStore"* %10 to i8*, !dbg !8237
  tail call void @llvm.memset.p0i8.i64(i8* noundef nonnull align 8 dereferenceable(24) %11, i8 0, i64 24, i1 false), !dbg !8238
  call void @llvm.dbg.value(metadata %"class.scabbard::trace::MetadataStore"* %10, metadata !8239, metadata !DIExpression(DW_OP_plus_uconst, 24, DW_OP_stack_value)), !dbg !8243
  call void @llvm.dbg.value(metadata %"class.scabbard::trace::MetadataStore"* %10, metadata !8245, metadata !DIExpression(DW_OP_plus_uconst, 24, DW_OP_stack_value)), !dbg !8249
  %12 = getelementptr inbounds %"class.scabbard::trace::AsyncQueue", %"class.scabbard::trace::AsyncQueue"* %0, i64 0, i32 9, i32 1, i32 0, i32 0, !dbg !8251
  %13 = getelementptr inbounds %"class.scabbard::trace::AsyncQueue", %"class.scabbard::trace::AsyncQueue"* %0, i64 0, i32 9, i32 1, i32 0, i32 5, !dbg !8252
  store %"struct.std::__detail::_Hash_node_base"** %13, %"struct.std::__detail::_Hash_node_base"*** %12, align 8, !dbg !8251, !tbaa !8253
  %14 = getelementptr inbounds %"class.scabbard::trace::AsyncQueue", %"class.scabbard::trace::AsyncQueue"* %0, i64 0, i32 9, i32 1, i32 0, i32 1, !dbg !8254
  store i64 1, i64* %14, align 8, !dbg !8254, !tbaa !8255
  call void @llvm.dbg.value(metadata %"class.scabbard::trace::MetadataStore"* %10, metadata !8256, metadata !DIExpression(DW_OP_plus_uconst, 24, DW_OP_plus_uconst, 16, DW_OP_stack_value)), !dbg !8259
  %15 = getelementptr inbounds %"class.scabbard::trace::AsyncQueue", %"class.scabbard::trace::AsyncQueue"* %0, i64 0, i32 9, i32 1, i32 0, i32 2, i32 0, !dbg !8261
  call void @llvm.dbg.value(metadata %"class.scabbard::trace::MetadataStore"* %10, metadata !8262, metadata !DIExpression(DW_OP_plus_uconst, 24, DW_OP_plus_uconst, 32, DW_OP_stack_value)), !dbg !8267
  call void @llvm.dbg.value(metadata float 1.000000e+00, metadata !8265, metadata !DIExpression()), !dbg !8267
  %16 = getelementptr inbounds %"class.scabbard::trace::AsyncQueue", %"class.scabbard::trace::AsyncQueue"* %0, i64 0, i32 9, i32 1, i32 0, i32 4, i32 0, !dbg !8269
  %17 = bitcast %"struct.std::__detail::_Hash_node_base"** %15 to i8*, !dbg !8269
  tail call void @llvm.memset.p0i8.i64(i8* noundef nonnull align 8 dereferenceable(16) %17, i8 0, i64 16, i1 false), !dbg !8270
  store float 1.000000e+00, float* %16, align 8, !dbg !8269, !tbaa !8271
  %18 = getelementptr inbounds %"class.scabbard::trace::AsyncQueue", %"class.scabbard::trace::AsyncQueue"* %0, i64 0, i32 9, i32 1, i32 0, i32 4, i32 1, !dbg !8272
  %19 = bitcast i64* %18 to i8*, !dbg !8273
  tail call void @llvm.memset.p0i8.i64(i8* noundef nonnull align 8 dereferenceable(16) %19, i8 0, i64 16, i1 false), !dbg !8274
  %20 = getelementptr inbounds %"class.scabbard::trace::AsyncQueue", %"class.scabbard::trace::AsyncQueue"* %0, i64 0, i32 1, !dbg !8275
  %21 = bitcast [64 x i64]* %20 to i8*, !dbg !8277
  tail call void @llvm.memset.p0i8.i64(i8* noundef nonnull align 8 dereferenceable(512) %21, i8 0, i64 512, i1 false), !dbg !8277
  ret void, !dbg !8278
}

; Function Attrs: uwtable
define linkonce_odr dso_local void @_ZNSt11_Deque_baseIN8scabbard5trace9TraceDataESaIS2_EE17_M_initialize_mapEm(%"class.std::_Deque_base"* noundef nonnull align 8 dereferenceable(80) %0, i64 noundef %1) local_unnamed_addr #0 comdat align 2 personality i8* bitcast (i32 (...)* @__gxx_personality_v0 to i8*) !dbg !8279 {
  call void @llvm.dbg.value(metadata %"class.std::_Deque_base"* %0, metadata !8281, metadata !DIExpression()), !dbg !8286
  call void @llvm.dbg.value(metadata i64 %1, metadata !8282, metadata !DIExpression()), !dbg !8286
  %3 = lshr i64 %1, 3, !dbg !8287
  call void @llvm.dbg.value(metadata i64 %3, metadata !8283, metadata !DIExpression(DW_OP_plus_uconst, 1, DW_OP_stack_value)), !dbg !8286
  %4 = tail call i64 @llvm.umax.i64(i64 %3, i64 5), !dbg !8288
  %5 = add nuw nsw i64 %4, 3, !dbg !8288
  %6 = getelementptr inbounds %"class.std::_Deque_base", %"class.std::_Deque_base"* %0, i64 0, i32 0, i32 0, i32 1, !dbg !8289
  store i64 %5, i64* %6, align 8, !dbg !8290, !tbaa !8291
  call void @llvm.dbg.declare(metadata i8* undef, metadata !8292, metadata !DIExpression()), !dbg !8297
  call void @llvm.dbg.value(metadata %"class.std::_Deque_base"* %0, metadata !8295, metadata !DIExpression()), !dbg !8299
  call void @llvm.dbg.value(metadata i64 %5, metadata !8296, metadata !DIExpression()), !dbg !8299
  call void @llvm.dbg.value(metadata %"class.std::ios_base::Init"* undef, metadata !8300, metadata !DIExpression()), !dbg !8329
  call void @llvm.dbg.value(metadata i64 %5, metadata !8328, metadata !DIExpression()), !dbg !8329
  call void @llvm.dbg.value(metadata %"class.std::ios_base::Init"* undef, metadata !8331, metadata !DIExpression()), !dbg !8337
  call void @llvm.dbg.value(metadata i64 %5, metadata !8334, metadata !DIExpression()), !dbg !8337
  call void @llvm.dbg.value(metadata i8* null, metadata !8335, metadata !DIExpression()), !dbg !8337
  %7 = icmp ugt i64 %4, 1152921504606846972, !dbg !8339
  br i1 %7, label %8, label %12, !dbg !8341, !prof !8342

8:                                                ; preds = %2
  %9 = icmp ugt i64 %4, 2305843009213693948, !dbg !8343
  br i1 %9, label %10, label %11, !dbg !8346

10:                                               ; preds = %8
  tail call void @_ZSt28__throw_bad_array_new_lengthv() #25, !dbg !8347
  unreachable, !dbg !8347

11:                                               ; preds = %8
  tail call void @_ZSt17__throw_bad_allocv() #25, !dbg !8348
  unreachable, !dbg !8348

12:                                               ; preds = %2
  %13 = add nuw nsw i64 %3, 1, !dbg !8349
  call void @llvm.dbg.value(metadata i64 %13, metadata !8283, metadata !DIExpression()), !dbg !8286
  %14 = shl nuw nsw i64 %5, 3, !dbg !8350
  %15 = tail call noalias noundef nonnull i8* @_Znwm(i64 noundef %14) #29, !dbg !8351
  %16 = bitcast i8* %15 to %"struct.scabbard::trace::TraceData"**, !dbg !8352
  %17 = bitcast %"class.std::_Deque_base"* %0 to i8**, !dbg !8353
  store i8* %15, i8** %17, align 8, !dbg !8353, !tbaa !8354
  %18 = sub nsw i64 %5, %13, !dbg !8355
  %19 = lshr i64 %18, 1, !dbg !8356
  %20 = getelementptr inbounds %"struct.scabbard::trace::TraceData"*, %"struct.scabbard::trace::TraceData"** %16, i64 %19, !dbg !8357
  call void @llvm.dbg.value(metadata %"struct.scabbard::trace::TraceData"** %20, metadata !8284, metadata !DIExpression()), !dbg !8286
  %21 = getelementptr inbounds %"struct.scabbard::trace::TraceData"*, %"struct.scabbard::trace::TraceData"** %20, i64 %13, !dbg !8358
  call void @llvm.dbg.value(metadata %"struct.scabbard::trace::TraceData"** %21, metadata !8285, metadata !DIExpression()), !dbg !8286
  call void @llvm.dbg.value(metadata %"class.std::_Deque_base"* %0, metadata !8359, metadata !DIExpression()), !dbg !8365
  call void @llvm.dbg.value(metadata %"struct.scabbard::trace::TraceData"** %20, metadata !8362, metadata !DIExpression()), !dbg !8365
  call void @llvm.dbg.value(metadata %"struct.scabbard::trace::TraceData"** %21, metadata !8363, metadata !DIExpression()), !dbg !8365
  call void @llvm.dbg.value(metadata %"struct.scabbard::trace::TraceData"** %20, metadata !8364, metadata !DIExpression()), !dbg !8365
  br label %22, !dbg !8368

22:                                               ; preds = %25, %12
  %23 = phi %"struct.scabbard::trace::TraceData"** [ %27, %25 ], [ %20, %12 ]
  call void @llvm.dbg.value(metadata %"struct.scabbard::trace::TraceData"** %23, metadata !8364, metadata !DIExpression()), !dbg !8365
  call void @llvm.dbg.value(metadata %"class.std::_Deque_base"* %0, metadata !8371, metadata !DIExpression()), !dbg !8374
  call void @llvm.dbg.value(metadata %"class.std::_Deque_base"* %0, metadata !8377, metadata !DIExpression()), !dbg !8381
  call void @llvm.dbg.value(metadata i64 8, metadata !8380, metadata !DIExpression()), !dbg !8381
  call void @llvm.dbg.value(metadata %"class.std::_Deque_base"* %0, metadata !8383, metadata !DIExpression()), !dbg !8389
  call void @llvm.dbg.value(metadata i64 8, metadata !8386, metadata !DIExpression()), !dbg !8389
  call void @llvm.dbg.value(metadata i8* null, metadata !8387, metadata !DIExpression()), !dbg !8389
  %24 = invoke noalias noundef nonnull dereferenceable(512) i8* @_Znwm(i64 noundef 512) #29
          to label %25 unwind label %29, !dbg !8391

25:                                               ; preds = %22
  %26 = bitcast %"struct.scabbard::trace::TraceData"** %23 to i8**, !dbg !8392
  store i8* %24, i8** %26, align 8, !dbg !8392, !tbaa !7581
  %27 = getelementptr inbounds %"struct.scabbard::trace::TraceData"*, %"struct.scabbard::trace::TraceData"** %23, i64 1, !dbg !8393
  call void @llvm.dbg.value(metadata %"struct.scabbard::trace::TraceData"** %27, metadata !8364, metadata !DIExpression()), !dbg !8365
  %28 = icmp ult %"struct.scabbard::trace::TraceData"** %27, %21, !dbg !8394
  br i1 %28, label %22, label %55, !dbg !8368, !llvm.loop !8395

29:                                               ; preds = %22
  %30 = landingpad { i8*, i32 }
          catch i8* null, !dbg !8398
  %31 = extractvalue { i8*, i32 } %30, 0, !dbg !8398
  %32 = tail call i8* @__cxa_begin_catch(i8* %31) #24, !dbg !8399
  call void @llvm.dbg.value(metadata %"class.std::_Deque_base"* %0, metadata !8400, metadata !DIExpression()), !dbg !8407
  call void @llvm.dbg.value(metadata %"struct.scabbard::trace::TraceData"** %20, metadata !8403, metadata !DIExpression()), !dbg !8407
  call void @llvm.dbg.value(metadata %"struct.scabbard::trace::TraceData"** %23, metadata !8404, metadata !DIExpression()), !dbg !8407
  call void @llvm.dbg.value(metadata %"struct.scabbard::trace::TraceData"** %20, metadata !8405, metadata !DIExpression()), !dbg !8410
  %33 = icmp ugt %"struct.scabbard::trace::TraceData"** %23, %20, !dbg !8411
  br i1 %33, label %34, label %40, !dbg !8413

34:                                               ; preds = %34, %29
  %35 = phi %"struct.scabbard::trace::TraceData"** [ %38, %34 ], [ %20, %29 ]
  call void @llvm.dbg.value(metadata %"struct.scabbard::trace::TraceData"** %35, metadata !8405, metadata !DIExpression()), !dbg !8410
  %36 = bitcast %"struct.scabbard::trace::TraceData"** %35 to i8**, !dbg !8414
  %37 = load i8*, i8** %36, align 8, !dbg !8414, !tbaa !7581
  call void @llvm.dbg.value(metadata %"class.std::_Deque_base"* %0, metadata !8415, metadata !DIExpression()), !dbg !8419
  call void @llvm.dbg.value(metadata %"struct.scabbard::trace::TraceData"* undef, metadata !8418, metadata !DIExpression()), !dbg !8419
  call void @llvm.dbg.value(metadata %"class.std::_Deque_base"* %0, metadata !8421, metadata !DIExpression()), !dbg !8426
  call void @llvm.dbg.value(metadata %"struct.scabbard::trace::TraceData"* undef, metadata !8424, metadata !DIExpression()), !dbg !8426
  call void @llvm.dbg.value(metadata i64 8, metadata !8425, metadata !DIExpression()), !dbg !8426
  call void @llvm.dbg.value(metadata %"class.std::_Deque_base"* %0, metadata !8428, metadata !DIExpression()), !dbg !8433
  call void @llvm.dbg.value(metadata %"struct.scabbard::trace::TraceData"* undef, metadata !8431, metadata !DIExpression()), !dbg !8433
  call void @llvm.dbg.value(metadata i64 8, metadata !8432, metadata !DIExpression()), !dbg !8433
  tail call void @_ZdlPv(i8* noundef %37) #26, !dbg !8435
  %38 = getelementptr inbounds %"struct.scabbard::trace::TraceData"*, %"struct.scabbard::trace::TraceData"** %35, i64 1, !dbg !8436
  call void @llvm.dbg.value(metadata %"struct.scabbard::trace::TraceData"** %38, metadata !8405, metadata !DIExpression()), !dbg !8410
  %39 = icmp ult %"struct.scabbard::trace::TraceData"** %38, %23, !dbg !8411
  br i1 %39, label %34, label %40, !dbg !8413, !llvm.loop !8437

40:                                               ; preds = %34, %29
  invoke void @__cxa_rethrow() #25
          to label %46 unwind label %41, !dbg !8439

41:                                               ; preds = %40
  %42 = landingpad { i8*, i32 }
          catch i8* null, !dbg !8440
  invoke void @__cxa_end_catch()
          to label %47 unwind label %43, !dbg !8441

43:                                               ; preds = %41
  %44 = landingpad { i8*, i32 }
          catch i8* null, !dbg !8441
  %45 = extractvalue { i8*, i32 } %44, 0, !dbg !8441
  tail call void @__clang_call_terminate(i8* %45) #27, !dbg !8441
  unreachable, !dbg !8441

46:                                               ; preds = %40
  unreachable

47:                                               ; preds = %41
  %48 = extractvalue { i8*, i32 } %42, 0, !dbg !8442
  %49 = tail call i8* @__cxa_begin_catch(i8* %48) #24, !dbg !8443
  %50 = load i8*, i8** %17, align 8, !dbg !8444, !tbaa !8354
  call void @llvm.dbg.declare(metadata i8* undef, metadata !8446, metadata !DIExpression()), !dbg !8452
  call void @llvm.dbg.value(metadata %"class.std::_Deque_base"* %0, metadata !8449, metadata !DIExpression()), !dbg !8454
  call void @llvm.dbg.value(metadata %"struct.scabbard::trace::TraceData"** undef, metadata !8450, metadata !DIExpression()), !dbg !8454
  call void @llvm.dbg.value(metadata i64 undef, metadata !8451, metadata !DIExpression()), !dbg !8454
  call void @llvm.dbg.value(metadata %"class.std::ios_base::Init"* undef, metadata !8455, metadata !DIExpression()), !dbg !8460
  call void @llvm.dbg.value(metadata %"struct.scabbard::trace::TraceData"** undef, metadata !8458, metadata !DIExpression()), !dbg !8460
  call void @llvm.dbg.value(metadata i64 undef, metadata !8459, metadata !DIExpression()), !dbg !8460
  call void @llvm.dbg.value(metadata %"class.std::ios_base::Init"* undef, metadata !8462, metadata !DIExpression()), !dbg !8467
  call void @llvm.dbg.value(metadata %"struct.scabbard::trace::TraceData"** undef, metadata !8465, metadata !DIExpression()), !dbg !8467
  call void @llvm.dbg.value(metadata i64 undef, metadata !8466, metadata !DIExpression()), !dbg !8467
  tail call void @_ZdlPv(i8* noundef %50) #26, !dbg !8469
  %51 = bitcast %"class.std::_Deque_base"* %0 to i8*, !dbg !8470
  tail call void @llvm.memset.p0i8.i64(i8* noundef nonnull align 8 dereferenceable(16) %51, i8 0, i64 16, i1 false), !dbg !8471
  invoke void @__cxa_rethrow() #25
          to label %74 unwind label %52, !dbg !8470

52:                                               ; preds = %47
  %53 = landingpad { i8*, i32 }
          cleanup, !dbg !8472
  invoke void @__cxa_end_catch()
          to label %54 unwind label %71, !dbg !8473

54:                                               ; preds = %52
  resume { i8*, i32 } %53, !dbg !8474

55:                                               ; preds = %25
  call void @llvm.dbg.value(metadata %"class.std::_Deque_base"* %0, metadata !8475, metadata !DIExpression(DW_OP_plus_uconst, 16, DW_OP_stack_value)), !dbg !8480
  call void @llvm.dbg.value(metadata %"struct.scabbard::trace::TraceData"** %20, metadata !8478, metadata !DIExpression()), !dbg !8480
  %56 = getelementptr inbounds %"class.std::_Deque_base", %"class.std::_Deque_base"* %0, i64 0, i32 0, i32 0, i32 2, i32 3, !dbg !8482
  store %"struct.scabbard::trace::TraceData"** %20, %"struct.scabbard::trace::TraceData"*** %56, align 8, !dbg !8483, !tbaa !8484
  %57 = load %"struct.scabbard::trace::TraceData"*, %"struct.scabbard::trace::TraceData"** %20, align 8, !dbg !8485, !tbaa !7581
  %58 = getelementptr inbounds %"class.std::_Deque_base", %"class.std::_Deque_base"* %0, i64 0, i32 0, i32 0, i32 2, i32 1, !dbg !8486
  store %"struct.scabbard::trace::TraceData"* %57, %"struct.scabbard::trace::TraceData"** %58, align 8, !dbg !8487, !tbaa !8488
  %59 = getelementptr inbounds %"struct.scabbard::trace::TraceData", %"struct.scabbard::trace::TraceData"* %57, i64 8, !dbg !8489
  %60 = getelementptr inbounds %"class.std::_Deque_base", %"class.std::_Deque_base"* %0, i64 0, i32 0, i32 0, i32 2, i32 2, !dbg !8490
  store %"struct.scabbard::trace::TraceData"* %59, %"struct.scabbard::trace::TraceData"** %60, align 8, !dbg !8491, !tbaa !8492
  %61 = getelementptr inbounds %"struct.scabbard::trace::TraceData"*, %"struct.scabbard::trace::TraceData"** %21, i64 -1, !dbg !8493
  call void @llvm.dbg.value(metadata %"class.std::_Deque_base"* %0, metadata !8475, metadata !DIExpression(DW_OP_plus_uconst, 48, DW_OP_stack_value)), !dbg !8494
  call void @llvm.dbg.value(metadata %"struct.scabbard::trace::TraceData"** %61, metadata !8478, metadata !DIExpression()), !dbg !8494
  %62 = getelementptr inbounds %"class.std::_Deque_base", %"class.std::_Deque_base"* %0, i64 0, i32 0, i32 0, i32 3, i32 3, !dbg !8496
  store %"struct.scabbard::trace::TraceData"** %61, %"struct.scabbard::trace::TraceData"*** %62, align 8, !dbg !8497, !tbaa !8484
  %63 = load %"struct.scabbard::trace::TraceData"*, %"struct.scabbard::trace::TraceData"** %61, align 8, !dbg !8498, !tbaa !7581
  %64 = getelementptr inbounds %"class.std::_Deque_base", %"class.std::_Deque_base"* %0, i64 0, i32 0, i32 0, i32 3, i32 1, !dbg !8499
  store %"struct.scabbard::trace::TraceData"* %63, %"struct.scabbard::trace::TraceData"** %64, align 8, !dbg !8500, !tbaa !8488
  %65 = getelementptr inbounds %"struct.scabbard::trace::TraceData", %"struct.scabbard::trace::TraceData"* %63, i64 8, !dbg !8501
  %66 = getelementptr inbounds %"class.std::_Deque_base", %"class.std::_Deque_base"* %0, i64 0, i32 0, i32 0, i32 3, i32 2, !dbg !8502
  store %"struct.scabbard::trace::TraceData"* %65, %"struct.scabbard::trace::TraceData"** %66, align 8, !dbg !8503, !tbaa !8492
  %67 = getelementptr inbounds %"class.std::_Deque_base", %"class.std::_Deque_base"* %0, i64 0, i32 0, i32 0, i32 2, i32 0, !dbg !8504
  store %"struct.scabbard::trace::TraceData"* %57, %"struct.scabbard::trace::TraceData"** %67, align 8, !dbg !8505, !tbaa !8506
  %68 = and i64 %1, 7, !dbg !8507
  %69 = getelementptr inbounds %"struct.scabbard::trace::TraceData", %"struct.scabbard::trace::TraceData"* %63, i64 %68, !dbg !8508
  %70 = getelementptr inbounds %"class.std::_Deque_base", %"class.std::_Deque_base"* %0, i64 0, i32 0, i32 0, i32 3, i32 0, !dbg !8509
  store %"struct.scabbard::trace::TraceData"* %69, %"struct.scabbard::trace::TraceData"** %70, align 8, !dbg !8510, !tbaa !8511
  ret void, !dbg !8474

71:                                               ; preds = %52
  %72 = landingpad { i8*, i32 }
          catch i8* null, !dbg !8473
  %73 = extractvalue { i8*, i32 } %72, 0, !dbg !8473
  tail call void @__clang_call_terminate(i8* %73) #27, !dbg !8473
  unreachable, !dbg !8473

74:                                               ; preds = %47
  unreachable
}

; Function Attrs: nocallback nofree nosync nounwind readnone speculatable willreturn
declare i64 @llvm.umax.i64(i64, i64) #5

; Function Attrs: noreturn
declare dso_local void @_ZSt28__throw_bad_array_new_lengthv() local_unnamed_addr #10

; Function Attrs: noreturn
declare dso_local void @_ZSt17__throw_bad_allocv() local_unnamed_addr #10

; Function Attrs: nobuiltin allocsize(0)
declare dso_local noundef nonnull i8* @_Znwm(i64 noundef) local_unnamed_addr #18

declare dso_local i8* @__cxa_begin_catch(i8*) local_unnamed_addr

declare dso_local void @__cxa_rethrow() local_unnamed_addr

declare dso_local void @__cxa_end_catch() local_unnamed_addr

; Function Attrs: noinline noreturn nounwind
define linkonce_odr hidden void @__clang_call_terminate(i8* %0) local_unnamed_addr #19 comdat {
  %2 = tail call i8* @__cxa_begin_catch(i8* %0) #24
  tail call void @_ZSt9terminatev() #27
  unreachable
}

declare !dbg !8512 dso_local void @_ZSt9terminatev() local_unnamed_addr

; Function Attrs: nounwind uwtable
define dso_local void @_ZN8scabbard5trace10AsyncQueueD2Ev(%"class.scabbard::trace::AsyncQueue"* noundef nonnull align 8 dereferenceable(263408) %0) unnamed_addr #20 align 2 personality i8* bitcast (i32 (...)* @__gxx_personality_v0 to i8*) !dbg !8513 {
  call void @llvm.dbg.value(metadata %"class.scabbard::trace::AsyncQueue"* %0, metadata !8515, metadata !DIExpression()), !dbg !8516
  call void @llvm.dbg.value(metadata %"class.scabbard::trace::AsyncQueue"* %0, metadata !8517, metadata !DIExpression()), !dbg !8520
  %2 = getelementptr inbounds %"class.scabbard::trace::AsyncQueue", %"class.scabbard::trace::AsyncQueue"* %0, i64 0, i32 6, !dbg !8523
  %3 = load %"class.std::thread"*, %"class.std::thread"** %2, align 8, !dbg !8523, !tbaa !8525
  %4 = icmp eq %"class.std::thread"* %3, null, !dbg !8526
  br i1 %4, label %17, label %5, !dbg !8527

5:                                                ; preds = %1
  %6 = getelementptr inbounds %"class.scabbard::trace::AsyncQueue", %"class.scabbard::trace::AsyncQueue"* %0, i64 0, i32 7, !dbg !8528
  store i8 0, i8* %6, align 8, !dbg !8530, !tbaa !8531
  invoke void @_ZNSt6thread4joinEv(%"class.std::thread"* noundef nonnull align 8 dereferenceable(8) %3)
          to label %7 unwind label %153, !dbg !8532

7:                                                ; preds = %5
  %8 = load %"class.std::thread"*, %"class.std::thread"** %2, align 8, !dbg !8533, !tbaa !8525
  %9 = icmp eq %"class.std::thread"* %8, null, !dbg !8534
  br i1 %9, label %17, label %10, !dbg !8534

10:                                               ; preds = %7
  call void @llvm.dbg.value(metadata %"class.std::thread"* %8, metadata !8535, metadata !DIExpression()), !dbg !8538
  call void @llvm.dbg.value(metadata %"class.std::thread"* %8, metadata !8540, metadata !DIExpression()), !dbg !8544
  %11 = getelementptr inbounds %"class.std::thread", %"class.std::thread"* %8, i64 0, i32 0, i32 0, !dbg !8548
  %12 = load i64, i64* %11, align 8, !dbg !8548, !tbaa.struct !7913
  call void @llvm.dbg.value(metadata i64 %12, metadata !8549, metadata !DIExpression()), !dbg !8555
  call void @llvm.dbg.value(metadata i64 0, metadata !8554, metadata !DIExpression()), !dbg !8555
  %13 = icmp eq i64 %12, 0, !dbg !8557
  br i1 %13, label %15, label %14, !dbg !8558

14:                                               ; preds = %10
  tail call void @_ZSt9terminatev() #27, !dbg !8559
  unreachable, !dbg !8559

15:                                               ; preds = %10
  %16 = bitcast %"class.std::thread"* %8 to i8*, !dbg !8534
  tail call void @_ZdlPv(i8* noundef %16) #26, !dbg !8534
  br label %17, !dbg !8534

17:                                               ; preds = %15, %7, %1
  %18 = getelementptr inbounds %"class.scabbard::trace::AsyncQueue", %"class.scabbard::trace::AsyncQueue"* %0, i64 0, i32 0, !dbg !8562
  %19 = load %"struct.scabbard::trace::DeviceAsyncQueue"*, %"struct.scabbard::trace::DeviceAsyncQueue"** %18, align 8, !dbg !8562, !tbaa !8114
  %20 = icmp eq %"struct.scabbard::trace::DeviceAsyncQueue"* %19, null, !dbg !8564
  br i1 %20, label %59, label %21, !dbg !8565

21:                                               ; preds = %17
  %22 = bitcast %"struct.scabbard::trace::DeviceAsyncQueue"* %19 to i8*, !dbg !8566
  %23 = invoke i32 @hipFree(i8* noundef nonnull %22)
          to label %24 unwind label %153, !dbg !8568

24:                                               ; preds = %21
  %25 = icmp eq i32 %23, 0, !dbg !8569
  br i1 %25, label %59, label %26, !dbg !8570

26:                                               ; preds = %24
  call void @llvm.dbg.value(metadata %"class.std::basic_ostream"* @_ZSt4cerr, metadata !8571, metadata !DIExpression()), !dbg !8575
  call void @llvm.dbg.value(metadata i8* getelementptr inbounds ([74 x i8], [74 x i8]* @.str.13, i64 0, i64 0), metadata !8574, metadata !DIExpression()), !dbg !8575
  %27 = invoke noundef nonnull align 8 dereferenceable(8) %"class.std::basic_ostream"* @_ZSt16__ostream_insertIcSt11char_traitsIcEERSt13basic_ostreamIT_T0_ES6_PKS3_l(%"class.std::basic_ostream"* noundef nonnull align 8 dereferenceable(8) @_ZSt4cerr, i8* noundef nonnull getelementptr inbounds ([74 x i8], [74 x i8]* @.str.13, i64 0, i64 0), i64 noundef 73)
          to label %28 unwind label %153, !dbg !8577

28:                                               ; preds = %26
  call void @llvm.dbg.value(metadata %"class.std::basic_ostream"* @_ZSt4cerr, metadata !8579, metadata !DIExpression()), !dbg !8583
  call void @llvm.dbg.value(metadata %"class.std::basic_ostream"* (%"class.std::basic_ostream"*)* @_ZSt4endlIcSt11char_traitsIcEERSt13basic_ostreamIT_T0_ES6_, metadata !8582, metadata !DIExpression()), !dbg !8583
  call void @llvm.dbg.value(metadata %"class.std::basic_ostream"* @_ZSt4cerr, metadata !8585, metadata !DIExpression()), !dbg !8588
  %29 = load i8*, i8** bitcast (%"class.std::basic_ostream"* @_ZSt4cerr to i8**), align 8, !dbg !8590, !tbaa !7999
  %30 = getelementptr i8, i8* %29, i64 -24, !dbg !8590
  %31 = bitcast i8* %30 to i64*, !dbg !8590
  %32 = load i64, i64* %31, align 8, !dbg !8590
  %33 = getelementptr inbounds i8, i8* bitcast (%"class.std::basic_ostream"* @_ZSt4cerr to i8*), i64 %32, !dbg !8590
  call void @llvm.dbg.value(metadata i8* %33, metadata !8591, metadata !DIExpression()), !dbg !8595
  call void @llvm.dbg.value(metadata i8 10, metadata !8594, metadata !DIExpression()), !dbg !8595
  %34 = getelementptr inbounds i8, i8* %33, i64 240, !dbg !8597
  %35 = bitcast i8* %34 to %"class.std::ctype"**, !dbg !8597
  %36 = load %"class.std::ctype"*, %"class.std::ctype"** %35, align 8, !dbg !8597, !tbaa !8016
  call void @llvm.dbg.value(metadata %"class.std::ctype"* %36, metadata !8598, metadata !DIExpression()), !dbg !8601
  %37 = icmp eq %"class.std::ctype"* %36, null, !dbg !8603
  br i1 %37, label %38, label %40, !dbg !8605

38:                                               ; preds = %28
  invoke void @_ZSt16__throw_bad_castv() #25
          to label %39 unwind label %153, !dbg !8606

39:                                               ; preds = %38
  unreachable, !dbg !8606

40:                                               ; preds = %28
  call void @llvm.dbg.value(metadata %"class.std::ctype"* %36, metadata !8607, metadata !DIExpression()), !dbg !8611
  call void @llvm.dbg.value(metadata i8 10, metadata !8610, metadata !DIExpression()), !dbg !8611
  %41 = getelementptr inbounds %"class.std::ctype", %"class.std::ctype"* %36, i64 0, i32 8, !dbg !8613
  %42 = load i8, i8* %41, align 8, !dbg !8613, !tbaa !8053
  %43 = icmp eq i8 %42, 0, !dbg !8613
  br i1 %43, label %47, label %44, !dbg !8615

44:                                               ; preds = %40
  %45 = getelementptr inbounds %"class.std::ctype", %"class.std::ctype"* %36, i64 0, i32 9, i64 10, !dbg !8616
  %46 = load i8, i8* %45, align 1, !dbg !8616, !tbaa !7116
  br label %54, !dbg !8617

47:                                               ; preds = %40
  invoke void @_ZNKSt5ctypeIcE13_M_widen_initEv(%"class.std::ctype"* noundef nonnull align 8 dereferenceable(570) %36)
          to label %48 unwind label %153, !dbg !8618

48:                                               ; preds = %47
  %49 = bitcast %"class.std::ctype"* %36 to i8 (%"class.std::ctype"*, i8)***, !dbg !8619
  %50 = load i8 (%"class.std::ctype"*, i8)**, i8 (%"class.std::ctype"*, i8)*** %49, align 8, !dbg !8619, !tbaa !7999
  %51 = getelementptr inbounds i8 (%"class.std::ctype"*, i8)*, i8 (%"class.std::ctype"*, i8)** %50, i64 6, !dbg !8619
  %52 = load i8 (%"class.std::ctype"*, i8)*, i8 (%"class.std::ctype"*, i8)** %51, align 8, !dbg !8619
  %53 = invoke noundef signext i8 %52(%"class.std::ctype"* noundef nonnull align 8 dereferenceable(570) %36, i8 noundef signext 10)
          to label %54 unwind label %153, !dbg !8619

54:                                               ; preds = %48, %44
  %55 = phi i8 [ %46, %44 ], [ %53, %48 ], !dbg !8611
  %56 = invoke noundef nonnull align 8 dereferenceable(8) %"class.std::basic_ostream"* @_ZNSo3putEc(%"class.std::basic_ostream"* noundef nonnull align 8 dereferenceable(8) @_ZSt4cerr, i8 noundef signext %55)
          to label %57 unwind label %153, !dbg !8620

57:                                               ; preds = %54
  call void @llvm.dbg.value(metadata %"class.std::basic_ostream"* %56, metadata !8621, metadata !DIExpression()), !dbg !8624
  %58 = invoke noundef nonnull align 8 dereferenceable(8) %"class.std::basic_ostream"* @_ZNSo5flushEv(%"class.std::basic_ostream"* noundef nonnull align 8 dereferenceable(8) %56)
          to label %59 unwind label %153, !dbg !8626

59:                                               ; preds = %57, %24, %17
  %60 = getelementptr inbounds %"class.scabbard::trace::AsyncQueue", %"class.scabbard::trace::AsyncQueue"* %0, i64 0, i32 5, !dbg !8627
  %61 = load %"class.scabbard::trace::TraceWriter"*, %"class.scabbard::trace::TraceWriter"** %60, align 8, !dbg !8627, !tbaa !8629
  %62 = icmp eq %"class.scabbard::trace::TraceWriter"* %61, null, !dbg !8630
  br i1 %62, label %72, label %63, !dbg !8631

63:                                               ; preds = %59
  %64 = getelementptr inbounds %"class.scabbard::trace::AsyncQueue", %"class.scabbard::trace::AsyncQueue"* %0, i64 0, i32 9, !dbg !8632
  invoke void @_ZN8scabbard5trace11TraceWriter8finalizeERKNS0_13MetadataStoreE(%"class.scabbard::trace::TraceWriter"* noundef nonnull align 8 dereferenceable(528) %61, %"class.scabbard::trace::MetadataStore"* noundef nonnull align 8 dereferenceable(80) %64)
          to label %65 unwind label %153, !dbg !8634

65:                                               ; preds = %63
  %66 = load %"class.scabbard::trace::TraceWriter"*, %"class.scabbard::trace::TraceWriter"** %60, align 8, !dbg !8635, !tbaa !8629
  invoke void @_ZN8scabbard5trace11TraceWriter5closeEv(%"class.scabbard::trace::TraceWriter"* noundef nonnull align 8 dereferenceable(528) %66)
          to label %67 unwind label %153, !dbg !8636

67:                                               ; preds = %65
  %68 = load %"class.scabbard::trace::TraceWriter"*, %"class.scabbard::trace::TraceWriter"** %60, align 8, !dbg !8637, !tbaa !8629
  %69 = icmp eq %"class.scabbard::trace::TraceWriter"* %68, null, !dbg !8638
  br i1 %69, label %72, label %70, !dbg !8638

70:                                               ; preds = %67
  tail call void @_ZN8scabbard5trace11TraceWriterD1Ev(%"class.scabbard::trace::TraceWriter"* noundef nonnull align 8 dereferenceable(528) %68) #24, !dbg !8638
  %71 = bitcast %"class.scabbard::trace::TraceWriter"* %68 to i8*, !dbg !8638
  tail call void @_ZdlPv(i8* noundef %71) #26, !dbg !8638
  br label %72, !dbg !8638

72:                                               ; preds = %70, %67, %59
  call void @llvm.dbg.value(metadata %"class.scabbard::trace::AsyncQueue"* %0, metadata !8639, metadata !DIExpression(DW_OP_plus_uconst, 263328, DW_OP_stack_value)), !dbg !8643
  %73 = getelementptr inbounds %"class.scabbard::trace::AsyncQueue", %"class.scabbard::trace::AsyncQueue"* %0, i64 0, i32 9, i32 1, !dbg !8645
  call void @llvm.dbg.value(metadata %"class.std::unordered_map"* %73, metadata !8647, metadata !DIExpression()), !dbg !8651
  call void @llvm.dbg.value(metadata %"class.std::unordered_map"* %73, metadata !8653, metadata !DIExpression()), !dbg !8656
  call void @llvm.dbg.value(metadata %"class.std::unordered_map"* %73, metadata !8659, metadata !DIExpression()), !dbg !8662
  call void @llvm.dbg.value(metadata %"class.std::unordered_map"* %73, metadata !8665, metadata !DIExpression()), !dbg !8669
  %74 = getelementptr inbounds %"class.scabbard::trace::AsyncQueue", %"class.scabbard::trace::AsyncQueue"* %0, i64 0, i32 9, i32 1, i32 0, i32 2, i32 0, !dbg !8671
  %75 = bitcast %"struct.std::__detail::_Hash_node_base"** %74 to %"struct.std::__detail::_Hash_node"**, !dbg !8671
  %76 = load %"struct.std::__detail::_Hash_node"*, %"struct.std::__detail::_Hash_node"** %75, align 8, !dbg !8671, !tbaa !8672
  call void @llvm.dbg.value(metadata %"class.std::unordered_map"* %73, metadata !8673, metadata !DIExpression()), !dbg !8680
  call void @llvm.dbg.value(metadata %"struct.std::__detail::_Hash_node"* %76, metadata !8676, metadata !DIExpression()), !dbg !8680
  %77 = icmp eq %"struct.std::__detail::_Hash_node"* %76, null, !dbg !8682
  br i1 %77, label %91, label %78, !dbg !8683

78:                                               ; preds = %88, %72
  %79 = phi %"struct.std::__detail::_Hash_node"* [ %81, %88 ], [ %76, %72 ]
  call void @llvm.dbg.value(metadata %"struct.std::__detail::_Hash_node"* %79, metadata !8676, metadata !DIExpression()), !dbg !8680
  call void @llvm.dbg.value(metadata %"struct.std::__detail::_Hash_node"* %79, metadata !8677, metadata !DIExpression()), !dbg !8684
  call void @llvm.dbg.value(metadata %"struct.std::__detail::_Hash_node"* %79, metadata !8685, metadata !DIExpression()), !dbg !8688
  %80 = bitcast %"struct.std::__detail::_Hash_node"* %79 to %"struct.std::__detail::_Hash_node"**, !dbg !8690
  %81 = load %"struct.std::__detail::_Hash_node"*, %"struct.std::__detail::_Hash_node"** %80, align 8, !dbg !8690, !tbaa !8691
  call void @llvm.dbg.value(metadata %"struct.std::__detail::_Hash_node"* %81, metadata !8676, metadata !DIExpression()), !dbg !8680
  call void @llvm.dbg.value(metadata %"class.std::unordered_map"* %73, metadata !8692, metadata !DIExpression()), !dbg !8696
  call void @llvm.dbg.value(metadata %"struct.std::__detail::_Hash_node"* %79, metadata !8695, metadata !DIExpression()), !dbg !8696
  %82 = getelementptr inbounds %"struct.std::__detail::_Hash_node", %"struct.std::__detail::_Hash_node"* %79, i64 0, i32 1, i32 0, i32 0, i32 0, i32 0, i64 0, !dbg !8698
  call void @llvm.dbg.value(metadata %"class.std::unordered_map"* %73, metadata !8699, metadata !DIExpression()), !dbg !8733
  call void @llvm.dbg.value(metadata i8* %82, metadata !8732, metadata !DIExpression()), !dbg !8733
  call void @llvm.dbg.value(metadata %"class.std::unordered_map"* %73, metadata !8735, metadata !DIExpression()), !dbg !8743
  call void @llvm.dbg.value(metadata i8* %82, metadata !8741, metadata !DIExpression()), !dbg !8743
  call void @llvm.dbg.value(metadata i8* %82, metadata !8745, metadata !DIExpression()), !dbg !8751
  call void @llvm.dbg.value(metadata i8* %82, metadata !8753, metadata !DIExpression()), !dbg !8756
  call void @llvm.dbg.value(metadata i8* %82, metadata !8759, metadata !DIExpression()), !dbg !8762
  call void @llvm.dbg.value(metadata i8* %82, metadata !8765, metadata !DIExpression()), !dbg !8768
  call void @llvm.dbg.value(metadata i8* %82, metadata !8771, metadata !DIExpression()), !dbg !8774
  %83 = bitcast i8* %82 to i8**, !dbg !8776
  %84 = load i8*, i8** %83, align 8, !dbg !8776, !tbaa !7105
  call void @llvm.dbg.value(metadata i8* %82, metadata !8777, metadata !DIExpression()), !dbg !8780
  %85 = getelementptr inbounds %"struct.std::__detail::_Hash_node", %"struct.std::__detail::_Hash_node"* %79, i64 0, i32 1, i32 0, i32 0, i32 0, i32 0, i64 16, !dbg !8782
  %86 = icmp eq i8* %84, %85, !dbg !8783
  br i1 %86, label %88, label %87, !dbg !8784

87:                                               ; preds = %78
  call void @llvm.dbg.value(metadata i8* %82, metadata !8785, metadata !DIExpression()), !dbg !8789
  call void @llvm.dbg.value(metadata i64 undef, metadata !8788, metadata !DIExpression()), !dbg !8789
  call void @llvm.dbg.value(metadata i8* %82, metadata !8771, metadata !DIExpression()), !dbg !8791
  call void @llvm.dbg.value(metadata i8* %82, metadata !8793, metadata !DIExpression()), !dbg !8798
  call void @llvm.dbg.value(metadata i8* %84, metadata !8796, metadata !DIExpression()), !dbg !8798
  call void @llvm.dbg.value(metadata i64 undef, metadata !8797, metadata !DIExpression(DW_OP_plus_uconst, 1, DW_OP_stack_value)), !dbg !8798
  call void @llvm.dbg.value(metadata i8* %82, metadata !8800, metadata !DIExpression()), !dbg !8805
  call void @llvm.dbg.value(metadata i8* %84, metadata !8803, metadata !DIExpression()), !dbg !8805
  call void @llvm.dbg.value(metadata i64 undef, metadata !8804, metadata !DIExpression(DW_OP_plus_uconst, 1, DW_OP_stack_value)), !dbg !8805
  tail call void @_ZdlPv(i8* noundef %84) #26, !dbg !8807
  br label %88, !dbg !8808

88:                                               ; preds = %87, %78
  call void @llvm.dbg.value(metadata %"class.std::unordered_map"* %73, metadata !8809, metadata !DIExpression()), !dbg !8825
  call void @llvm.dbg.value(metadata %"struct.std::__detail::_Hash_node"* %79, metadata !8812, metadata !DIExpression()), !dbg !8825
  call void @llvm.dbg.value(metadata %"struct.std::__detail::_Hash_node"* %79, metadata !8813, metadata !DIExpression()), !dbg !8825
  call void @llvm.dbg.value(metadata %"class.std::unordered_map"* %73, metadata !8827, metadata !DIExpression()), !dbg !8832
  call void @llvm.dbg.value(metadata %"struct.std::__detail::_Hash_node"* %79, metadata !8830, metadata !DIExpression()), !dbg !8832
  call void @llvm.dbg.value(metadata i64 1, metadata !8831, metadata !DIExpression()), !dbg !8832
  call void @llvm.dbg.value(metadata %"class.std::unordered_map"* %73, metadata !8834, metadata !DIExpression()), !dbg !8839
  call void @llvm.dbg.value(metadata %"struct.std::__detail::_Hash_node"* %79, metadata !8837, metadata !DIExpression()), !dbg !8839
  call void @llvm.dbg.value(metadata i64 1, metadata !8838, metadata !DIExpression()), !dbg !8839
  %89 = bitcast %"struct.std::__detail::_Hash_node"* %79 to i8*, !dbg !8841
  tail call void @_ZdlPv(i8* noundef %89) #26, !dbg !8842
  call void @llvm.dbg.value(metadata %"struct.std::__detail::_Hash_node"* %81, metadata !8676, metadata !DIExpression()), !dbg !8680
  %90 = icmp eq %"struct.std::__detail::_Hash_node"* %81, null, !dbg !8682
  br i1 %90, label %91, label %78, !dbg !8683, !llvm.loop !8843

91:                                               ; preds = %88, %72
  %92 = bitcast %"class.std::unordered_map"* %73 to i8**, !dbg !8845
  %93 = load i8*, i8** %92, align 8, !dbg !8845, !tbaa !8253
  %94 = getelementptr inbounds %"class.scabbard::trace::AsyncQueue", %"class.scabbard::trace::AsyncQueue"* %0, i64 0, i32 9, i32 1, i32 0, i32 1, !dbg !8846
  %95 = load i64, i64* %94, align 8, !dbg !8846, !tbaa !8255
  %96 = shl i64 %95, 3, !dbg !8847
  tail call void @llvm.memset.p0i8.i64(i8* align 8 %93, i8 0, i64 %96, i1 false), !dbg !8848
  %97 = bitcast %"struct.std::__detail::_Hash_node_base"** %74 to i8*, !dbg !8849
  tail call void @llvm.memset.p0i8.i64(i8* noundef nonnull align 8 dereferenceable(16) %97, i8 0, i64 16, i1 false), !dbg !8850
  call void @llvm.dbg.value(metadata %"class.std::unordered_map"* %73, metadata !8851, metadata !DIExpression()), !dbg !8854
  %98 = getelementptr inbounds %"class.std::unordered_map", %"class.std::unordered_map"* %73, i64 0, i32 0, i32 0, !dbg !8856
  %99 = load %"struct.std::__detail::_Hash_node_base"**, %"struct.std::__detail::_Hash_node_base"*** %98, align 8, !dbg !8856, !tbaa !8253
  call void @llvm.dbg.value(metadata %"class.std::unordered_map"* %73, metadata !8857, metadata !DIExpression()), !dbg !8862
  call void @llvm.dbg.value(metadata %"struct.std::__detail::_Hash_node_base"** %99, metadata !8860, metadata !DIExpression()), !dbg !8862
  call void @llvm.dbg.value(metadata i64 undef, metadata !8861, metadata !DIExpression()), !dbg !8862
  call void @llvm.dbg.value(metadata %"class.std::unordered_map"* %73, metadata !8864, metadata !DIExpression()), !dbg !8868
  call void @llvm.dbg.value(metadata %"struct.std::__detail::_Hash_node_base"** %99, metadata !8867, metadata !DIExpression()), !dbg !8868
  %100 = getelementptr inbounds %"class.scabbard::trace::AsyncQueue", %"class.scabbard::trace::AsyncQueue"* %0, i64 0, i32 9, i32 1, i32 0, i32 5, !dbg !8871
  %101 = icmp eq %"struct.std::__detail::_Hash_node_base"** %100, %99, !dbg !8872
  br i1 %101, label %104, label %102, !dbg !8873

102:                                              ; preds = %91
  call void @llvm.dbg.declare(metadata i8* undef, metadata !8874, metadata !DIExpression()), !dbg !8902
  call void @llvm.dbg.value(metadata %"class.std::unordered_map"* %73, metadata !8877, metadata !DIExpression()), !dbg !8904
  call void @llvm.dbg.value(metadata %"struct.std::__detail::_Hash_node_base"** %99, metadata !8878, metadata !DIExpression()), !dbg !8904
  call void @llvm.dbg.value(metadata i64 undef, metadata !8879, metadata !DIExpression()), !dbg !8904
  call void @llvm.dbg.value(metadata %"struct.std::__detail::_Hash_node_base"** %99, metadata !8880, metadata !DIExpression()), !dbg !8904
  call void @llvm.dbg.value(metadata %"class.std::ios_base::Init"* undef, metadata !8905, metadata !DIExpression()), !dbg !8935
  call void @llvm.dbg.value(metadata %"struct.std::__detail::_Hash_node_base"** %99, metadata !8933, metadata !DIExpression()), !dbg !8935
  call void @llvm.dbg.value(metadata i64 undef, metadata !8934, metadata !DIExpression()), !dbg !8935
  call void @llvm.dbg.value(metadata %"class.std::ios_base::Init"* undef, metadata !8937, metadata !DIExpression()), !dbg !8943
  call void @llvm.dbg.value(metadata %"struct.std::__detail::_Hash_node_base"** %99, metadata !8940, metadata !DIExpression()), !dbg !8943
  call void @llvm.dbg.value(metadata i64 undef, metadata !8941, metadata !DIExpression()), !dbg !8943
  %103 = bitcast %"struct.std::__detail::_Hash_node_base"** %99 to i8*, !dbg !8945
  tail call void @_ZdlPv(i8* noundef %103) #26, !dbg !8946
  br label %104, !dbg !8947

104:                                              ; preds = %102, %91
  call void @llvm.dbg.value(metadata %"class.scabbard::trace::AsyncQueue"* %0, metadata !8948, metadata !DIExpression(DW_OP_plus_uconst, 263328, DW_OP_stack_value)), !dbg !8951
  %105 = getelementptr inbounds %"class.scabbard::trace::AsyncQueue", %"class.scabbard::trace::AsyncQueue"* %0, i64 0, i32 9, i32 0, i32 0, i32 0, i32 0, i32 0, !dbg !8953
  %106 = load %"class.std::__cxx11::basic_string"*, %"class.std::__cxx11::basic_string"** %105, align 8, !dbg !8953, !tbaa !8955
  %107 = getelementptr inbounds %"class.scabbard::trace::AsyncQueue", %"class.scabbard::trace::AsyncQueue"* %0, i64 0, i32 9, i32 0, i32 0, i32 0, i32 0, i32 1, !dbg !8956
  %108 = load %"class.std::__cxx11::basic_string"*, %"class.std::__cxx11::basic_string"** %107, align 8, !dbg !8956, !tbaa !8957
  call void @llvm.dbg.value(metadata %"class.std::__cxx11::basic_string"* %106, metadata !8958, metadata !DIExpression()), !dbg !8967
  call void @llvm.dbg.value(metadata %"class.std::__cxx11::basic_string"* %108, metadata !8963, metadata !DIExpression()), !dbg !8967
  call void @llvm.dbg.value(metadata %"class.scabbard::trace::AsyncQueue"* %0, metadata !8964, metadata !DIExpression(DW_OP_plus_uconst, 263328, DW_OP_stack_value)), !dbg !8967
  call void @llvm.dbg.value(metadata %"class.std::__cxx11::basic_string"* %106, metadata !8969, metadata !DIExpression()), !dbg !8977
  call void @llvm.dbg.value(metadata %"class.std::__cxx11::basic_string"* %108, metadata !8975, metadata !DIExpression()), !dbg !8977
  call void @llvm.dbg.value(metadata %"class.std::__cxx11::basic_string"* %106, metadata !8979, metadata !DIExpression()), !dbg !8985
  call void @llvm.dbg.value(metadata %"class.std::__cxx11::basic_string"* %108, metadata !8984, metadata !DIExpression()), !dbg !8985
  %109 = icmp eq %"class.std::__cxx11::basic_string"* %106, %108, !dbg !8987
  br i1 %109, label %123, label %110, !dbg !8990

110:                                              ; preds = %118, %104
  %111 = phi %"class.std::__cxx11::basic_string"* [ %119, %118 ], [ %106, %104 ]
  call void @llvm.dbg.value(metadata %"class.std::__cxx11::basic_string"* %111, metadata !8979, metadata !DIExpression()), !dbg !8985
  call void @llvm.dbg.value(metadata %"class.std::__cxx11::basic_string"* %111, metadata !8991, metadata !DIExpression()), !dbg !8996
  call void @llvm.dbg.value(metadata %"class.std::__cxx11::basic_string"* %111, metadata !8753, metadata !DIExpression()), !dbg !8998
  call void @llvm.dbg.value(metadata %"class.std::__cxx11::basic_string"* %111, metadata !8759, metadata !DIExpression()), !dbg !9000
  call void @llvm.dbg.value(metadata %"class.std::__cxx11::basic_string"* %111, metadata !8765, metadata !DIExpression()), !dbg !9002
  call void @llvm.dbg.value(metadata %"class.std::__cxx11::basic_string"* %111, metadata !8771, metadata !DIExpression()), !dbg !9004
  %112 = getelementptr inbounds %"class.std::__cxx11::basic_string", %"class.std::__cxx11::basic_string"* %111, i64 0, i32 0, i32 0, !dbg !9006
  %113 = load i8*, i8** %112, align 8, !dbg !9006, !tbaa !7105
  call void @llvm.dbg.value(metadata %"class.std::__cxx11::basic_string"* %111, metadata !8777, metadata !DIExpression()), !dbg !9007
  %114 = getelementptr inbounds %"class.std::__cxx11::basic_string", %"class.std::__cxx11::basic_string"* %111, i64 0, i32 2, !dbg !9009
  %115 = bitcast %union.anon.6* %114 to i8*, !dbg !9010
  %116 = icmp eq i8* %113, %115, !dbg !9011
  br i1 %116, label %118, label %117, !dbg !9012

117:                                              ; preds = %110
  call void @llvm.dbg.value(metadata %"class.std::__cxx11::basic_string"* %111, metadata !8785, metadata !DIExpression()), !dbg !9013
  call void @llvm.dbg.value(metadata i64 undef, metadata !8788, metadata !DIExpression()), !dbg !9013
  call void @llvm.dbg.value(metadata %"class.std::__cxx11::basic_string"* %111, metadata !8771, metadata !DIExpression()), !dbg !9015
  call void @llvm.dbg.value(metadata %"class.std::__cxx11::basic_string"* %111, metadata !8793, metadata !DIExpression()), !dbg !9017
  call void @llvm.dbg.value(metadata i8* %113, metadata !8796, metadata !DIExpression()), !dbg !9017
  call void @llvm.dbg.value(metadata i64 undef, metadata !8797, metadata !DIExpression(DW_OP_plus_uconst, 1, DW_OP_stack_value)), !dbg !9017
  call void @llvm.dbg.value(metadata %"class.std::__cxx11::basic_string"* %111, metadata !8800, metadata !DIExpression()), !dbg !9019
  call void @llvm.dbg.value(metadata i8* %113, metadata !8803, metadata !DIExpression()), !dbg !9019
  call void @llvm.dbg.value(metadata i64 undef, metadata !8804, metadata !DIExpression(DW_OP_plus_uconst, 1, DW_OP_stack_value)), !dbg !9019
  tail call void @_ZdlPv(i8* noundef %113) #26, !dbg !9021
  br label %118, !dbg !9022

118:                                              ; preds = %117, %110
  %119 = getelementptr inbounds %"class.std::__cxx11::basic_string", %"class.std::__cxx11::basic_string"* %111, i64 1, !dbg !9023
  call void @llvm.dbg.value(metadata %"class.std::__cxx11::basic_string"* %119, metadata !8979, metadata !DIExpression()), !dbg !8985
  %120 = icmp eq %"class.std::__cxx11::basic_string"* %119, %108, !dbg !8987
  br i1 %120, label %121, label %110, !dbg !8990, !llvm.loop !9024

121:                                              ; preds = %118
  %122 = load %"class.std::__cxx11::basic_string"*, %"class.std::__cxx11::basic_string"** %105, align 8, !dbg !9026, !tbaa !8955
  br label %123, !dbg !9026

123:                                              ; preds = %121, %104
  %124 = phi %"class.std::__cxx11::basic_string"* [ %122, %121 ], [ %106, %104 ], !dbg !9026
  call void @llvm.dbg.value(metadata %"class.scabbard::trace::AsyncQueue"* %0, metadata !9030, metadata !DIExpression(DW_OP_plus_uconst, 263328, DW_OP_stack_value)), !dbg !9032
  call void @llvm.dbg.value(metadata %"class.scabbard::trace::AsyncQueue"* %0, metadata !9033, metadata !DIExpression(DW_OP_plus_uconst, 263328, DW_OP_stack_value)), !dbg !9038
  call void @llvm.dbg.value(metadata %"class.std::__cxx11::basic_string"* %124, metadata !9036, metadata !DIExpression()), !dbg !9038
  call void @llvm.dbg.value(metadata !DIArgList(%"class.std::__cxx11::basic_string"* undef, %"class.std::__cxx11::basic_string"* %124), metadata !9037, metadata !DIExpression(DW_OP_LLVM_arg, 0, DW_OP_LLVM_arg, 1, DW_OP_minus, DW_OP_constu, 5, DW_OP_shra, DW_OP_stack_value)), !dbg !9038
  %125 = icmp eq %"class.std::__cxx11::basic_string"* %124, null, !dbg !9040
  br i1 %125, label %128, label %126, !dbg !9042

126:                                              ; preds = %123
  call void @llvm.dbg.value(metadata %"class.scabbard::trace::AsyncQueue"* %0, metadata !9043, metadata !DIExpression(DW_OP_plus_uconst, 263328, DW_OP_stack_value)), !dbg !9048
  call void @llvm.dbg.value(metadata %"class.std::__cxx11::basic_string"* %124, metadata !9046, metadata !DIExpression()), !dbg !9048
  call void @llvm.dbg.value(metadata !DIArgList(%"class.std::__cxx11::basic_string"* undef, %"class.std::__cxx11::basic_string"* %124), metadata !9047, metadata !DIExpression(DW_OP_LLVM_arg, 0, DW_OP_LLVM_arg, 1, DW_OP_minus, DW_OP_constu, 5, DW_OP_shra, DW_OP_stack_value)), !dbg !9048
  call void @llvm.dbg.value(metadata %"class.scabbard::trace::AsyncQueue"* %0, metadata !9050, metadata !DIExpression(DW_OP_plus_uconst, 263328, DW_OP_stack_value)), !dbg !9056
  call void @llvm.dbg.value(metadata %"class.std::__cxx11::basic_string"* %124, metadata !9053, metadata !DIExpression()), !dbg !9056
  call void @llvm.dbg.value(metadata !DIArgList(%"class.std::__cxx11::basic_string"* undef, %"class.std::__cxx11::basic_string"* %124), metadata !9054, metadata !DIExpression(DW_OP_LLVM_arg, 0, DW_OP_LLVM_arg, 1, DW_OP_minus, DW_OP_constu, 5, DW_OP_shra, DW_OP_stack_value)), !dbg !9056
  %127 = bitcast %"class.std::__cxx11::basic_string"* %124 to i8*, !dbg !9058
  tail call void @_ZdlPv(i8* noundef %127) #26, !dbg !9059
  br label %128, !dbg !9060

128:                                              ; preds = %126, %123
  %129 = getelementptr inbounds %"class.scabbard::trace::AsyncQueue", %"class.scabbard::trace::AsyncQueue"* %0, i64 0, i32 3, !dbg !9061
  call void @llvm.dbg.value(metadata %"class.std::queue"* %129, metadata !9062, metadata !DIExpression()), !dbg !9066
  call void @llvm.dbg.value(metadata %"class.std::queue"* %129, metadata !9068, metadata !DIExpression()), !dbg !9071
  call void @llvm.dbg.value(metadata %"class.std::queue"* %129, metadata !9074, metadata !DIExpression()), !dbg !9077
  %130 = getelementptr inbounds %"class.std::queue", %"class.std::queue"* %129, i64 0, i32 0, i32 0, i32 0, i32 0, i32 0, !dbg !9080
  %131 = load %"struct.scabbard::trace::TraceData"**, %"struct.scabbard::trace::TraceData"*** %130, align 8, !dbg !9080, !tbaa !8354
  %132 = icmp eq %"struct.scabbard::trace::TraceData"** %131, null, !dbg !9083
  br i1 %132, label %152, label %133, !dbg !9084

133:                                              ; preds = %128
  %134 = bitcast %"struct.scabbard::trace::TraceData"** %131 to i8*, !dbg !9084
  %135 = getelementptr inbounds %"class.scabbard::trace::AsyncQueue", %"class.scabbard::trace::AsyncQueue"* %0, i64 0, i32 3, i32 0, i32 0, i32 0, i32 0, i32 2, i32 3, !dbg !9085
  %136 = load %"struct.scabbard::trace::TraceData"**, %"struct.scabbard::trace::TraceData"*** %135, align 8, !dbg !9085, !tbaa !9087
  %137 = getelementptr inbounds %"class.scabbard::trace::AsyncQueue", %"class.scabbard::trace::AsyncQueue"* %0, i64 0, i32 3, i32 0, i32 0, i32 0, i32 0, i32 3, i32 3, !dbg !9088
  %138 = load %"struct.scabbard::trace::TraceData"**, %"struct.scabbard::trace::TraceData"*** %137, align 8, !dbg !9088, !tbaa !9089
  %139 = getelementptr inbounds %"struct.scabbard::trace::TraceData"*, %"struct.scabbard::trace::TraceData"** %138, i64 1, !dbg !9090
  call void @llvm.dbg.value(metadata %"class.std::queue"* %129, metadata !8400, metadata !DIExpression()), !dbg !9091
  call void @llvm.dbg.value(metadata %"struct.scabbard::trace::TraceData"** %136, metadata !8403, metadata !DIExpression()), !dbg !9091
  call void @llvm.dbg.value(metadata %"struct.scabbard::trace::TraceData"** %139, metadata !8404, metadata !DIExpression()), !dbg !9091
  call void @llvm.dbg.value(metadata %"struct.scabbard::trace::TraceData"** %136, metadata !8405, metadata !DIExpression()), !dbg !9093
  %140 = icmp ult %"struct.scabbard::trace::TraceData"** %136, %139, !dbg !9094
  br i1 %140, label %141, label %150, !dbg !9095

141:                                              ; preds = %141, %133
  %142 = phi %"struct.scabbard::trace::TraceData"** [ %145, %141 ], [ %136, %133 ]
  call void @llvm.dbg.value(metadata %"struct.scabbard::trace::TraceData"** %142, metadata !8405, metadata !DIExpression()), !dbg !9093
  %143 = bitcast %"struct.scabbard::trace::TraceData"** %142 to i8**, !dbg !9096
  %144 = load i8*, i8** %143, align 8, !dbg !9096, !tbaa !7581
  call void @llvm.dbg.value(metadata %"class.std::queue"* %129, metadata !8415, metadata !DIExpression()), !dbg !9097
  call void @llvm.dbg.value(metadata %"struct.scabbard::trace::TraceData"* undef, metadata !8418, metadata !DIExpression()), !dbg !9097
  call void @llvm.dbg.value(metadata %"class.std::queue"* %129, metadata !8421, metadata !DIExpression()), !dbg !9099
  call void @llvm.dbg.value(metadata %"struct.scabbard::trace::TraceData"* undef, metadata !8424, metadata !DIExpression()), !dbg !9099
  call void @llvm.dbg.value(metadata i64 8, metadata !8425, metadata !DIExpression()), !dbg !9099
  call void @llvm.dbg.value(metadata %"class.std::queue"* %129, metadata !8428, metadata !DIExpression()), !dbg !9101
  call void @llvm.dbg.value(metadata %"struct.scabbard::trace::TraceData"* undef, metadata !8431, metadata !DIExpression()), !dbg !9101
  call void @llvm.dbg.value(metadata i64 8, metadata !8432, metadata !DIExpression()), !dbg !9101
  tail call void @_ZdlPv(i8* noundef %144) #26, !dbg !9103
  %145 = getelementptr inbounds %"struct.scabbard::trace::TraceData"*, %"struct.scabbard::trace::TraceData"** %142, i64 1, !dbg !9104
  call void @llvm.dbg.value(metadata %"struct.scabbard::trace::TraceData"** %145, metadata !8405, metadata !DIExpression()), !dbg !9093
  %146 = icmp ult %"struct.scabbard::trace::TraceData"** %142, %138, !dbg !9094
  br i1 %146, label %141, label %147, !dbg !9095, !llvm.loop !9105

147:                                              ; preds = %141
  %148 = bitcast %"class.std::queue"* %129 to i8**
  %149 = load i8*, i8** %148, align 8, !dbg !9107, !tbaa !8354
  br label %150, !dbg !9107

150:                                              ; preds = %147, %133
  %151 = phi i8* [ %149, %147 ], [ %134, %133 ], !dbg !9107
  call void @llvm.dbg.declare(metadata i8* undef, metadata !8446, metadata !DIExpression()), !dbg !9108
  call void @llvm.dbg.value(metadata %"class.std::queue"* %129, metadata !8449, metadata !DIExpression()), !dbg !9110
  call void @llvm.dbg.value(metadata %"struct.scabbard::trace::TraceData"** undef, metadata !8450, metadata !DIExpression()), !dbg !9110
  call void @llvm.dbg.value(metadata i64 undef, metadata !8451, metadata !DIExpression()), !dbg !9110
  call void @llvm.dbg.value(metadata %"class.std::ios_base::Init"* undef, metadata !8455, metadata !DIExpression()), !dbg !9111
  call void @llvm.dbg.value(metadata %"struct.scabbard::trace::TraceData"** undef, metadata !8458, metadata !DIExpression()), !dbg !9111
  call void @llvm.dbg.value(metadata i64 undef, metadata !8459, metadata !DIExpression()), !dbg !9111
  call void @llvm.dbg.value(metadata %"class.std::ios_base::Init"* undef, metadata !8462, metadata !DIExpression()), !dbg !9113
  call void @llvm.dbg.value(metadata %"struct.scabbard::trace::TraceData"** undef, metadata !8465, metadata !DIExpression()), !dbg !9113
  call void @llvm.dbg.value(metadata i64 undef, metadata !8466, metadata !DIExpression()), !dbg !9113
  tail call void @_ZdlPv(i8* noundef %151) #26, !dbg !9115
  br label %152, !dbg !9116

152:                                              ; preds = %150, %128
  ret void, !dbg !9117

153:                                              ; preds = %65, %63, %57, %54, %48, %47, %38, %26, %21, %5
  %154 = landingpad { i8*, i32 }
          catch i8* null, !dbg !9118
  %155 = extractvalue { i8*, i32 } %154, 0, !dbg !9118
  tail call void @__clang_call_terminate(i8* %155) #27, !dbg !9118
  unreachable, !dbg !9118
}

declare dso_local void @_ZNSt6thread4joinEv(%"class.std::thread"* noundef nonnull align 8 dereferenceable(8)) local_unnamed_addr #1

declare !dbg !9119 dso_local i32 @hipFree(i8* noundef) local_unnamed_addr #1

; Function Attrs: uwtable
define dso_local void @_ZN8scabbard5trace10AsyncQueue4stopEv(%"class.scabbard::trace::AsyncQueue"* nocapture noundef nonnull align 8 dereferenceable(263408) %0) local_unnamed_addr #0 align 2 !dbg !8518 {
  call void @llvm.dbg.value(metadata %"class.scabbard::trace::AsyncQueue"* %0, metadata !8517, metadata !DIExpression()), !dbg !9122
  %2 = getelementptr inbounds %"class.scabbard::trace::AsyncQueue", %"class.scabbard::trace::AsyncQueue"* %0, i64 0, i32 6, !dbg !9123
  %3 = load %"class.std::thread"*, %"class.std::thread"** %2, align 8, !dbg !9123, !tbaa !8525
  %4 = icmp eq %"class.std::thread"* %3, null, !dbg !9124
  br i1 %4, label %16, label %5, !dbg !9125

5:                                                ; preds = %1
  %6 = getelementptr inbounds %"class.scabbard::trace::AsyncQueue", %"class.scabbard::trace::AsyncQueue"* %0, i64 0, i32 7, !dbg !9126
  store i8 0, i8* %6, align 8, !dbg !9127, !tbaa !8531
  tail call void @_ZNSt6thread4joinEv(%"class.std::thread"* noundef nonnull align 8 dereferenceable(8) %3), !dbg !9128
  %7 = load %"class.std::thread"*, %"class.std::thread"** %2, align 8, !dbg !9129, !tbaa !8525
  %8 = icmp eq %"class.std::thread"* %7, null, !dbg !9130
  br i1 %8, label %16, label %9, !dbg !9130

9:                                                ; preds = %5
  call void @llvm.dbg.value(metadata %"class.std::thread"* %7, metadata !8535, metadata !DIExpression()), !dbg !9131
  call void @llvm.dbg.value(metadata %"class.std::thread"* %7, metadata !8540, metadata !DIExpression()), !dbg !9133
  %10 = getelementptr inbounds %"class.std::thread", %"class.std::thread"* %7, i64 0, i32 0, i32 0, !dbg !9135
  %11 = load i64, i64* %10, align 8, !dbg !9135, !tbaa.struct !7913
  call void @llvm.dbg.value(metadata i64 %11, metadata !8549, metadata !DIExpression()), !dbg !9136
  call void @llvm.dbg.value(metadata i64 0, metadata !8554, metadata !DIExpression()), !dbg !9136
  %12 = icmp eq i64 %11, 0, !dbg !9138
  br i1 %12, label %14, label %13, !dbg !9139

13:                                               ; preds = %9
  tail call void @_ZSt9terminatev() #27, !dbg !9140
  unreachable, !dbg !9140

14:                                               ; preds = %9
  %15 = bitcast %"class.std::thread"* %7 to i8*, !dbg !9130
  tail call void @_ZdlPv(i8* noundef %15) #26, !dbg !9130
  br label %16, !dbg !9130

16:                                               ; preds = %14, %5, %1
  ret void, !dbg !9142
}

; Function Attrs: uwtable
define dso_local void @_ZN8scabbard5trace10AsyncQueue5startEv(%"class.scabbard::trace::AsyncQueue"* noundef nonnull align 8 dereferenceable(263408) %0) local_unnamed_addr #0 align 2 personality i8* bitcast (i32 (...)* @__gxx_personality_v0 to i8*) !dbg !6485 {
  %2 = alloca %"class.std::unique_ptr", align 8
  call void @llvm.dbg.value(metadata %"class.scabbard::trace::AsyncQueue"* %0, metadata !6487, metadata !DIExpression()), !dbg !9143
  call void @llvm.dbg.value(metadata %"class.scabbard::trace::AsyncQueue"* %0, metadata !8517, metadata !DIExpression()), !dbg !9144
  %3 = getelementptr inbounds %"class.scabbard::trace::AsyncQueue", %"class.scabbard::trace::AsyncQueue"* %0, i64 0, i32 6, !dbg !9146
  %4 = load %"class.std::thread"*, %"class.std::thread"** %3, align 8, !dbg !9146, !tbaa !8525
  %5 = icmp eq %"class.std::thread"* %4, null, !dbg !9147
  br i1 %5, label %17, label %6, !dbg !9148

6:                                                ; preds = %1
  %7 = getelementptr inbounds %"class.scabbard::trace::AsyncQueue", %"class.scabbard::trace::AsyncQueue"* %0, i64 0, i32 7, !dbg !9149
  store i8 0, i8* %7, align 8, !dbg !9150, !tbaa !8531
  tail call void @_ZNSt6thread4joinEv(%"class.std::thread"* noundef nonnull align 8 dereferenceable(8) %4), !dbg !9151
  %8 = load %"class.std::thread"*, %"class.std::thread"** %3, align 8, !dbg !9152, !tbaa !8525
  %9 = icmp eq %"class.std::thread"* %8, null, !dbg !9153
  br i1 %9, label %17, label %10, !dbg !9153

10:                                               ; preds = %6
  call void @llvm.dbg.value(metadata %"class.std::thread"* %8, metadata !8535, metadata !DIExpression()), !dbg !9154
  call void @llvm.dbg.value(metadata %"class.std::thread"* %8, metadata !8540, metadata !DIExpression()), !dbg !9156
  %11 = getelementptr inbounds %"class.std::thread", %"class.std::thread"* %8, i64 0, i32 0, i32 0, !dbg !9158
  %12 = load i64, i64* %11, align 8, !dbg !9158, !tbaa.struct !7913
  call void @llvm.dbg.value(metadata i64 %12, metadata !8549, metadata !DIExpression()), !dbg !9159
  call void @llvm.dbg.value(metadata i64 0, metadata !8554, metadata !DIExpression()), !dbg !9159
  %13 = icmp eq i64 %12, 0, !dbg !9161
  br i1 %13, label %15, label %14, !dbg !9162

14:                                               ; preds = %10
  tail call void @_ZSt9terminatev() #27, !dbg !9163
  unreachable, !dbg !9163

15:                                               ; preds = %10
  %16 = bitcast %"class.std::thread"* %8 to i8*, !dbg !9153
  tail call void @_ZdlPv(i8* noundef %16) #26, !dbg !9153
  br label %17, !dbg !9153

17:                                               ; preds = %15, %6, %1
  %18 = getelementptr inbounds %"class.scabbard::trace::AsyncQueue", %"class.scabbard::trace::AsyncQueue"* %0, i64 0, i32 7, !dbg !9165
  store i8 1, i8* %18, align 8, !dbg !9166, !tbaa !8531
  %19 = tail call noalias noundef nonnull dereferenceable(8) i8* @_Znwm(i64 noundef 8) #29, !dbg !9167, !heapallocsite !64
  %20 = bitcast i8* %19 to %"class.std::thread"*, !dbg !9167
  %21 = bitcast %"class.std::unique_ptr"* %2 to i8*, !dbg !9168
  call void @llvm.lifetime.start.p0i8(i64 8, i8* nonnull %21), !dbg !9168
  call void @llvm.dbg.value(metadata %"class.std::thread"* %20, metadata !9175, metadata !DIExpression()), !dbg !9168
  call void @llvm.dbg.value(metadata %class.anon* undef, metadata !9176, metadata !DIExpression()), !dbg !9168
  call void @llvm.dbg.value(metadata %"class.std::thread"* %20, metadata !9180, metadata !DIExpression()), !dbg !9184
  %22 = getelementptr inbounds %"class.std::thread", %"class.std::thread"* %20, i64 0, i32 0, i32 0, !dbg !9186
  store i64 0, i64* %22, align 8, !dbg !9186, !tbaa !9187
  call void @llvm.dbg.value(metadata i8* null, metadata !9177, metadata !DIExpression()), !dbg !9189
  %23 = invoke noalias noundef nonnull dereferenceable(16) i8* @_Znwm(i64 noundef 16) #29
          to label %24 unwind label %51, !dbg !9190

24:                                               ; preds = %17
  %25 = ptrtoint %"class.scabbard::trace::AsyncQueue"* %0 to i64, !dbg !9191
  %26 = bitcast i8* %23 to %"struct.std::thread::_State_impl"*, !dbg !9190
  call void @llvm.dbg.value(metadata %"struct.std::thread::_State_impl"* %26, metadata !9192, metadata !DIExpression()), !dbg !9202
  call void @llvm.dbg.value(metadata %class.anon* undef, metadata !9200, metadata !DIExpression()), !dbg !9202
  %27 = getelementptr inbounds %"struct.std::thread::_State_impl", %"struct.std::thread::_State_impl"* %26, i64 0, i32 0, i32 0, !dbg !9204
  store i32 (...)** bitcast (i8** getelementptr inbounds ({ [5 x i8*] }, { [5 x i8*] }* @_ZTVNSt6thread11_State_implINS_8_InvokerISt5tupleIJZN8scabbard5trace10AsyncQueue5startEvEUlvE_EEEEEE, i64 0, inrange i32 0, i64 2) to i32 (...)**), i32 (...)*** %27, align 8, !dbg !9204, !tbaa !7999
  %28 = getelementptr inbounds %"struct.std::thread::_State_impl", %"struct.std::thread::_State_impl"* %26, i64 0, i32 1, i32 0, !dbg !9205
  call void @llvm.dbg.value(metadata %"class.std::tuple.21"* %28, metadata !9206, metadata !DIExpression()), !dbg !9218
  call void @llvm.dbg.value(metadata %class.anon* undef, metadata !9216, metadata !DIExpression()), !dbg !9218
  call void @llvm.dbg.value(metadata %"class.std::tuple.21"* %28, metadata !9220, metadata !DIExpression()), !dbg !9230
  call void @llvm.dbg.value(metadata %class.anon* undef, metadata !9228, metadata !DIExpression()), !dbg !9230
  call void @llvm.dbg.value(metadata %"class.std::tuple.21"* %28, metadata !9232, metadata !DIExpression()), !dbg !9240
  call void @llvm.dbg.value(metadata %class.anon* undef, metadata !9238, metadata !DIExpression()), !dbg !9240
  %29 = bitcast %"class.std::tuple.21"* %28 to i64*, !dbg !9242
  store i64 %25, i64* %29, align 8, !dbg !9242, !tbaa !7581
  %30 = getelementptr %"struct.std::thread::_State_impl", %"struct.std::thread::_State_impl"* %26, i64 0, i32 0, !dbg !9190
  call void @llvm.dbg.value(metadata %"class.std::unique_ptr"* %2, metadata !9243, metadata !DIExpression()), !dbg !9251
  call void @llvm.dbg.value(metadata %"class.std::basic_ostream.base"* %30, metadata !9249, metadata !DIExpression()), !dbg !9251
  call void @llvm.dbg.value(metadata %"class.std::unique_ptr"* %2, metadata !9253, metadata !DIExpression()), !dbg !9261
  call void @llvm.dbg.value(metadata %"class.std::basic_ostream.base"* %30, metadata !9259, metadata !DIExpression()), !dbg !9261
  call void @llvm.dbg.value(metadata %"class.std::unique_ptr"* %2, metadata !9263, metadata !DIExpression()), !dbg !9268
  call void @llvm.dbg.value(metadata %"class.std::basic_ostream.base"* %30, metadata !9266, metadata !DIExpression()), !dbg !9268
  call void @llvm.dbg.value(metadata %"class.std::unique_ptr"* %2, metadata !9270, metadata !DIExpression()), !dbg !9273
  call void @llvm.dbg.value(metadata %"class.std::unique_ptr"* %2, metadata !9276, metadata !DIExpression()), !dbg !9295
  call void @llvm.dbg.value(metadata %"class.std::unique_ptr"* %2, metadata !9297, metadata !DIExpression()), !dbg !9302
  call void @llvm.dbg.value(metadata %"class.std::unique_ptr"* %2, metadata !9304, metadata !DIExpression()), !dbg !9307
  call void @llvm.dbg.value(metadata %"class.std::unique_ptr"* %2, metadata !9309, metadata !DIExpression()), !dbg !9312
  %31 = getelementptr inbounds %"class.std::unique_ptr", %"class.std::unique_ptr"* %2, i64 0, i32 0, i32 0, i32 0, i32 0, i32 0, i32 0, !dbg !9314
  store %"class.std::basic_ostream.base"* %30, %"class.std::basic_ostream.base"** %31, align 8, !dbg !9315, !tbaa !7581
  invoke void @_ZNSt6thread15_M_start_threadESt10unique_ptrINS_6_StateESt14default_deleteIS1_EEPFvvE(%"class.std::thread"* noundef nonnull align 8 dereferenceable(8) %20, %"class.std::unique_ptr"* noundef nonnull %2, void ()* noundef null)
          to label %32 unwind label %40, !dbg !9316

32:                                               ; preds = %24
  call void @llvm.dbg.value(metadata %"class.std::unique_ptr"* %2, metadata !9317, metadata !DIExpression()), !dbg !9322
  call void @llvm.dbg.value(metadata %"class.std::unique_ptr"* %2, metadata !9270, metadata !DIExpression()), !dbg !9324
  call void @llvm.dbg.value(metadata %"class.std::unique_ptr"* %2, metadata !9276, metadata !DIExpression()), !dbg !9326
  call void @llvm.dbg.value(metadata %"class.std::unique_ptr"* %2, metadata !9297, metadata !DIExpression()), !dbg !9328
  call void @llvm.dbg.value(metadata %"class.std::unique_ptr"* %2, metadata !9304, metadata !DIExpression()), !dbg !9330
  call void @llvm.dbg.value(metadata %"class.std::unique_ptr"* %2, metadata !9309, metadata !DIExpression()), !dbg !9332
  call void @llvm.dbg.value(metadata %"class.std::basic_ostream.base"** %31, metadata !9320, metadata !DIExpression()), !dbg !9334
  %33 = load %"class.std::basic_ostream.base"*, %"class.std::basic_ostream.base"** %31, align 8, !dbg !9335, !tbaa !7581
  %34 = icmp eq %"class.std::basic_ostream.base"* %33, null, !dbg !9337
  br i1 %34, label %49, label %35, !dbg !9338

35:                                               ; preds = %32
  call void @llvm.dbg.value(metadata %"class.std::unique_ptr"* %2, metadata !9339, metadata !DIExpression()), !dbg !9344
  call void @llvm.dbg.value(metadata %"class.std::basic_ostream.base"* %33, metadata !9342, metadata !DIExpression()), !dbg !9344
  %36 = bitcast %"class.std::basic_ostream.base"* %33 to void (%"class.std::basic_ostream.base"*)***, !dbg !9346
  %37 = load void (%"class.std::basic_ostream.base"*)**, void (%"class.std::basic_ostream.base"*)*** %36, align 8, !dbg !9346, !tbaa !7999
  %38 = getelementptr inbounds void (%"class.std::basic_ostream.base"*)*, void (%"class.std::basic_ostream.base"*)** %37, i64 1, !dbg !9346
  %39 = load void (%"class.std::basic_ostream.base"*)*, void (%"class.std::basic_ostream.base"*)** %38, align 8, !dbg !9346
  call void %39(%"class.std::basic_ostream.base"* noundef nonnull align 8 dereferenceable(8) %33) #24, !dbg !9346
  br label %49, !dbg !9347

40:                                               ; preds = %24
  %41 = landingpad { i8*, i32 }
          cleanup, !dbg !9348
  call void @llvm.dbg.value(metadata %"class.std::unique_ptr"* %2, metadata !9317, metadata !DIExpression()), !dbg !9349
  call void @llvm.dbg.value(metadata %"class.std::unique_ptr"* %2, metadata !9270, metadata !DIExpression()), !dbg !9351
  call void @llvm.dbg.value(metadata %"class.std::unique_ptr"* %2, metadata !9276, metadata !DIExpression()), !dbg !9353
  call void @llvm.dbg.value(metadata %"class.std::unique_ptr"* %2, metadata !9297, metadata !DIExpression()), !dbg !9355
  call void @llvm.dbg.value(metadata %"class.std::unique_ptr"* %2, metadata !9304, metadata !DIExpression()), !dbg !9357
  call void @llvm.dbg.value(metadata %"class.std::unique_ptr"* %2, metadata !9309, metadata !DIExpression()), !dbg !9359
  call void @llvm.dbg.value(metadata %"class.std::basic_ostream.base"** %31, metadata !9320, metadata !DIExpression()), !dbg !9361
  %42 = load %"class.std::basic_ostream.base"*, %"class.std::basic_ostream.base"** %31, align 8, !dbg !9362, !tbaa !7581
  %43 = icmp eq %"class.std::basic_ostream.base"* %42, null, !dbg !9363
  br i1 %43, label %53, label %44, !dbg !9364

44:                                               ; preds = %40
  call void @llvm.dbg.value(metadata %"class.std::unique_ptr"* %2, metadata !9339, metadata !DIExpression()), !dbg !9365
  call void @llvm.dbg.value(metadata %"class.std::basic_ostream.base"* %42, metadata !9342, metadata !DIExpression()), !dbg !9365
  %45 = bitcast %"class.std::basic_ostream.base"* %42 to void (%"class.std::basic_ostream.base"*)***, !dbg !9367
  %46 = load void (%"class.std::basic_ostream.base"*)**, void (%"class.std::basic_ostream.base"*)*** %45, align 8, !dbg !9367, !tbaa !7999
  %47 = getelementptr inbounds void (%"class.std::basic_ostream.base"*)*, void (%"class.std::basic_ostream.base"*)** %46, i64 1, !dbg !9367
